Archive member included       because of file (symbol)

E:/nightly/rwsdk.sky/rwsdk/lib/sky2/librplogo.a(rplogo.obj)
                              obj/sky2/main.o (RpLogoPluginAttach)
E:/nightly/rwsdk.sky/rwsdk/lib/sky2/librtimport.a(rtimport.obj)
                              obj/sky2/world.o (RtWorldImportDestroy)
E:/nightly/rwsdk.sky/rwsdk/lib/sky2/librtimport.a(nhscond.obj)
                              E:/nightly/rwsdk.sky/rwsdk/lib/sky2/librtimport.a(rtimport.obj) (_rtImportSetWeldThresholdPositional)
E:/nightly/rwsdk.sky/rwsdk/lib/sky2/librtimport.a(nhssplit.obj)
                              E:/nightly/rwsdk.sky/rwsdk/lib/sky2/librtimport.a(rtimport.obj) (_rtImportBuildSectorCreateFromNoHSWorld)
E:/nightly/rwsdk.sky/rwsdk/lib/sky2/librtimport.a(nhsstats.obj)
                              E:/nightly/rwsdk.sky/rwsdk/lib/sky2/librtimport.a(nhssplit.obj) (_rtImportBuildSectorGetClipStatistics)
E:/nightly/rwsdk.sky/rwsdk/lib/sky2/librtimport.a(nhsutil.obj)
                              E:/nightly/rwsdk.sky/rwsdk/lib/sky2/librtimport.a(nhssplit.obj) (_rtImportPlaneSectorDestroyTree)
E:/nightly/rwsdk.sky/rwsdk/lib/sky2/librtimport.a(nhswing.obj)
                              E:/nightly/rwsdk.sky/rwsdk/lib/sky2/librtimport.a(nhscond.obj) (_rtImportBuildSectorWeldPolygons)
E:/nightly/rwsdk.sky/rwsdk/lib/sky2/librtimport.a(nhsworld.obj)
                              E:/nightly/rwsdk.sky/rwsdk/lib/sky2/librtimport.a(nhssplit.obj) (_rtImportWorldSectorCompressTree)
E:/nightly/rwsdk.sky/rwsdk/lib/sky2/librtimport.a(nhsbary.obj)
                              E:/nightly/rwsdk.sky/rwsdk/lib/sky2/librtimport.a(nhswing.obj) (_rtImportBarycentricFromCartesianMatrix)
E:/nightly/rwsdk.sky/rwsdk/lib/sky2/librtimport.a(nhssmplx.obj)
                              E:/nightly/rwsdk.sky/rwsdk/lib/sky2/librtimport.a(nhswing.obj) (_rtImportWingPolyTriangulate)
E:/nightly/rwsdk.sky/rwsdk/lib/sky2/librtcharse.a(chrprint.obj)
                              obj/sky2/menu.o (RtCharsetBufferFlush)
E:/nightly/rwsdk.sky/rwsdk/lib/sky2/librtcharse.a(rtcharse.obj)
                              obj/sky2/main.o (RtCharsetCreate)
E:/nightly/rwsdk.sky/rwsdk/lib/sky2/librtbmp.a(rtbmp.obj)
                              obj/sky2/skeleton.o (RtBMPImageRead)
E:/nightly/rwsdk.sky/rwsdk/lib/sky2/librtpng.a(rtpng.obj)
                              obj/sky2/skeleton.o (RtPNGImageRead)
E:/nightly/rwsdk.sky/rwsdk/lib/sky2/librtpng.a(png.obj)
                              E:/nightly/rwsdk.sky/rwsdk/lib/sky2/librtpng.a(rtpng.obj) (png_create_info_struct)
E:/nightly/rwsdk.sky/rwsdk/lib/sky2/librtpng.a(pngerror.obj)
                              E:/nightly/rwsdk.sky/rwsdk/lib/sky2/librtpng.a(rtpng.obj) (png_error)
E:/nightly/rwsdk.sky/rwsdk/lib/sky2/librtpng.a(pngget.obj)
                              E:/nightly/rwsdk.sky/rwsdk/lib/sky2/librtpng.a(rtpng.obj) (png_get_valid)
E:/nightly/rwsdk.sky/rwsdk/lib/sky2/librtpng.a(pngmem.obj)
                              E:/nightly/rwsdk.sky/rwsdk/lib/sky2/librtpng.a(png.obj) (png_malloc)
E:/nightly/rwsdk.sky/rwsdk/lib/sky2/librtpng.a(pngread.obj)
                              E:/nightly/rwsdk.sky/rwsdk/lib/sky2/librtpng.a(rtpng.obj) (png_create_read_struct_2)
E:/nightly/rwsdk.sky/rwsdk/lib/sky2/librtpng.a(pngrio.obj)
                              E:/nightly/rwsdk.sky/rwsdk/lib/sky2/librtpng.a(rtpng.obj) (png_set_read_fn)
E:/nightly/rwsdk.sky/rwsdk/lib/sky2/librtpng.a(pngrtran.obj)
                              E:/nightly/rwsdk.sky/rwsdk/lib/sky2/librtpng.a(pngread.obj) (png_read_transform_info)
E:/nightly/rwsdk.sky/rwsdk/lib/sky2/librtpng.a(pngrutil.obj)
                              E:/nightly/rwsdk.sky/rwsdk/lib/sky2/librtpng.a(pngread.obj) (png_handle_IHDR)
E:/nightly/rwsdk.sky/rwsdk/lib/sky2/librtpng.a(pngset.obj)
                              E:/nightly/rwsdk.sky/rwsdk/lib/sky2/librtpng.a(pngrutil.obj) (png_set_cHRM)
E:/nightly/rwsdk.sky/rwsdk/lib/sky2/librtpng.a(pngtrans.obj)
                              E:/nightly/rwsdk.sky/rwsdk/lib/sky2/librtpng.a(pngrtran.obj) (png_do_strip_filler)
E:/nightly/rwsdk.sky/rwsdk/lib/sky2/librtpng.a(pngwio.obj)
                              E:/nightly/rwsdk.sky/rwsdk/lib/sky2/librtpng.a(rtpng.obj) (png_set_write_fn)
E:/nightly/rwsdk.sky/rwsdk/lib/sky2/librtpng.a(pngwrite.obj)
                              E:/nightly/rwsdk.sky/rwsdk/lib/sky2/librtpng.a(rtpng.obj) (png_write_info)
E:/nightly/rwsdk.sky/rwsdk/lib/sky2/librtpng.a(pngwtran.obj)
                              E:/nightly/rwsdk.sky/rwsdk/lib/sky2/librtpng.a(pngwrite.obj) (png_do_write_transformations)
E:/nightly/rwsdk.sky/rwsdk/lib/sky2/librtpng.a(pngwutil.obj)
                              E:/nightly/rwsdk.sky/rwsdk/lib/sky2/librtpng.a(pngwrite.obj) (png_write_IHDR)
E:/nightly/rwsdk.sky/rwsdk/lib/sky2/librtpng.a(deflate.obj)
                              E:/nightly/rwsdk.sky/rwsdk/lib/sky2/librtpng.a(pngwutil.obj) (deflateInit2_)
E:/nightly/rwsdk.sky/rwsdk/lib/sky2/librtpng.a(trees.obj)
                              E:/nightly/rwsdk.sky/rwsdk/lib/sky2/librtpng.a(deflate.obj) (_dist_code)
E:/nightly/rwsdk.sky/rwsdk/lib/sky2/librtpng.a(zutil.obj)
                              E:/nightly/rwsdk.sky/rwsdk/lib/sky2/librtpng.a(deflate.obj) (z_errmsg)
E:/nightly/rwsdk.sky/rwsdk/lib/sky2/librtpng.a(inflate.obj)
                              E:/nightly/rwsdk.sky/rwsdk/lib/sky2/librtpng.a(pngread.obj) (inflate)
E:/nightly/rwsdk.sky/rwsdk/lib/sky2/librtpng.a(infblock.obj)
                              E:/nightly/rwsdk.sky/rwsdk/lib/sky2/librtpng.a(inflate.obj) (inflate_blocks_new)
E:/nightly/rwsdk.sky/rwsdk/lib/sky2/librtpng.a(inftrees.obj)
                              E:/nightly/rwsdk.sky/rwsdk/lib/sky2/librtpng.a(infblock.obj) (inflate_trees_bits)
E:/nightly/rwsdk.sky/rwsdk/lib/sky2/librtpng.a(infcodes.obj)
                              E:/nightly/rwsdk.sky/rwsdk/lib/sky2/librtpng.a(infblock.obj) (inflate_codes)
E:/nightly/rwsdk.sky/rwsdk/lib/sky2/librtpng.a(infutil.obj)
                              E:/nightly/rwsdk.sky/rwsdk/lib/sky2/librtpng.a(infblock.obj) (inflate_mask)
E:/nightly/rwsdk.sky/rwsdk/lib/sky2/librtpng.a(inffast.obj)
                              E:/nightly/rwsdk.sky/rwsdk/lib/sky2/librtpng.a(infcodes.obj) (inflate_fast)
E:/nightly/rwsdk.sky/rwsdk/lib/sky2/librtpng.a(crc32.obj)
                              E:/nightly/rwsdk.sky/rwsdk/lib/sky2/librtpng.a(png.obj) (crc32)
E:/nightly/rwsdk.sky/rwsdk/lib/sky2/librtpng.a(adler32.obj)
                              E:/nightly/rwsdk.sky/rwsdk/lib/sky2/librtpng.a(deflate.obj) (adler32)
E:/nightly/rwsdk.sky/rwsdk/lib/sky2/librpworld.a(bageomet.obj)
                              E:/nightly/rwsdk.sky/rwsdk/lib/sky2/librtimport.a(rtimport.obj) (RpMorphTargetCalcBoundingSphere)
E:/nightly/rwsdk.sky/rwsdk/lib/sky2/librpworld.a(balight.obj)
                              obj/sky2/main.o (RpLightCreate)
E:/nightly/rwsdk.sky/rwsdk/lib/sky2/librpworld.a(bamateri.obj)
                              E:/nightly/rwsdk.sky/rwsdk/lib/sky2/librtimport.a(nhssplit.obj) (RpMaterialGetTexture)
E:/nightly/rwsdk.sky/rwsdk/lib/sky2/librpworld.a(bamatlst.obj)
                              E:/nightly/rwsdk.sky/rwsdk/lib/sky2/librtimport.a(rtimport.obj) (_rpMaterialListCopy)
E:/nightly/rwsdk.sky/rwsdk/lib/sky2/librpworld.a(bamesh.obj)
                              E:/nightly/rwsdk.sky/rwsdk/lib/sky2/librpworld.a(bageomet.obj) (_rpBuildMeshCreate)
E:/nightly/rwsdk.sky/rwsdk/lib/sky2/librpworld.a(bameshop.obj)
                              E:/nightly/rwsdk.sky/rwsdk/lib/sky2/librpworld.a(bageomet.obj) (_rpMeshOptimise)
E:/nightly/rwsdk.sky/rwsdk/lib/sky2/librpworld.a(basector.obj)
                              E:/nightly/rwsdk.sky/rwsdk/lib/sky2/librtimport.a(nhssplit.obj) (sectorTKList)
E:/nightly/rwsdk.sky/rwsdk/lib/sky2/librpworld.a(baworld.obj)
                              E:/nightly/rwsdk.sky/rwsdk/lib/sky2/librtimport.a(nhssplit.obj) (RpWorldUnlock)
E:/nightly/rwsdk.sky/rwsdk/lib/sky2/librpworld.a(baworobj.obj)
                              E:/nightly/rwsdk.sky/rwsdk/lib/sky2/librpworld.a(baworld.obj) (_rpWorldObjRegisterExtensions)
E:/nightly/rwsdk.sky/rwsdk/lib/sky2/librpworld.a(bapipew.obj)
                              E:/nightly/rwsdk.sky/rwsdk/lib/sky2/librpworld.a(baworld.obj) (_rpWorldPipelineClose)
E:/nightly/rwsdk.sky/rwsdk/lib/sky2/librpworld.a(nodeAtomicEnumerateLights.obj)
                              E:/nightly/rwsdk.sky/rwsdk/lib/sky2/librpworld.a(bapipew.obj) (RxNodeDefinitionGetAtomicEnumerateLights)
E:/nightly/rwsdk.sky/rwsdk/lib/sky2/librpworld.a(nodeAtomicInstance.obj)
                              E:/nightly/rwsdk.sky/rwsdk/lib/sky2/librpworld.a(bapipew.obj) (RxNodeDefinitionGetAtomicInstance)
E:/nightly/rwsdk.sky/rwsdk/lib/sky2/librpworld.a(nodeLight.obj)
                              E:/nightly/rwsdk.sky/rwsdk/lib/sky2/librpworld.a(bapipew.obj) (RxNodeDefinitionGetLight)
E:/nightly/rwsdk.sky/rwsdk/lib/sky2/librpworld.a(nodeMaterialScatter.obj)
                              E:/nightly/rwsdk.sky/rwsdk/lib/sky2/librpworld.a(bapipew.obj) (RxNodeDefinitionGetMaterialScatter)
E:/nightly/rwsdk.sky/rwsdk/lib/sky2/librpworld.a(nodePostLight.obj)
                              E:/nightly/rwsdk.sky/rwsdk/lib/sky2/librpworld.a(bapipew.obj) (RxNodeDefinitionGetPostLight)
E:/nightly/rwsdk.sky/rwsdk/lib/sky2/librpworld.a(nodePreLight.obj)
                              E:/nightly/rwsdk.sky/rwsdk/lib/sky2/librpworld.a(bapipew.obj) (RxNodeDefinitionGetPreLight)
E:/nightly/rwsdk.sky/rwsdk/lib/sky2/librpworld.a(nodeWorldSectorEnumerateLights.obj)
                              E:/nightly/rwsdk.sky/rwsdk/lib/sky2/librpworld.a(bapipew.obj) (RxNodeDefinitionGetWorldSectorEnumerateLights)
E:/nightly/rwsdk.sky/rwsdk/lib/sky2/librpworld.a(nodeWorldSectorInstance.obj)
                              E:/nightly/rwsdk.sky/rwsdk/lib/sky2/librpworld.a(bapipew.obj) (RxNodeDefinitionGetWorldSectorInstance)
E:/nightly/rwsdk.sky/rwsdk/lib/sky2/librpworld.a(p2stdclsw.obj)
                              E:/nightly/rwsdk.sky/rwsdk/lib/sky2/librpworld.a(nodeAtomicEnumerateLights.obj) (RxClLights)
E:/nightly/rwsdk.sky/rwsdk/lib/sky2/librpworld.a(wrldpipe.obj)
                              E:/nightly/rwsdk.sky/rwsdk/lib/sky2/librpworld.a(baworld.obj) (_rxWorldDevicePluginAttach)
E:/nightly/rwsdk.sky/rwsdk/lib/sky2/librpworld.a(fastim3d.obj)
                              E:/nightly/rwsdk.sky/rwsdk/lib/sky2/librpworld.a(bapipew.obj) (_rwfastIm3DPipesOpen)
E:/nightly/rwsdk.sky/rwsdk/lib/sky2/librpworld.a(native.obj)
                              E:/nightly/rwsdk.sky/rwsdk/lib/sky2/librpworld.a(baworobj.obj) (_rpGeometryNativeWrite)
E:/nightly/rwsdk.sky/rwsdk/lib/sky2/librpworld.a(nodeps2all.obj)
                              E:/nightly/rwsdk.sky/rwsdk/lib/sky2/librpworld.a(wrldpipe.obj) (RxNodeDefinitionGetPS2All)
E:/nightly/rwsdk.sky/rwsdk/lib/sky2/librpworld.a(ps2allmat.obj)
                              E:/nightly/rwsdk.sky/rwsdk/lib/sky2/librpworld.a(wrldpipe.obj) (RxPipelineNodePS2AllMatGenerateCluster)
E:/nightly/rwsdk.sky/rwsdk/lib/sky2/librpworld.a(objallinone.obj)
                              E:/nightly/rwsdk.sky/rwsdk/lib/sky2/librpworld.a(nodeps2all.obj) (PS2AllSkyWorldApplyLight)
E:/nightly/rwsdk.sky/rwsdk/lib/sky2/librpworld.a(matinstance.obj)
                              E:/nightly/rwsdk.sky/rwsdk/lib/sky2/librpworld.a(ps2allmat.obj) (_rwPS2AllRabinsConstructionTimeCode)
E:/nightly/rwsdk.sky/rwsdk/lib/sky2/librpworld.a(ps2allim3d.obj)
                              E:/nightly/rwsdk.sky/rwsdk/lib/sky2/librpworld.a(fastim3d.obj) (RwIm3DPS2AllObjectSetupCallBack)
E:/nightly/rwsdk.sky/rwsdk/lib/sky2/librpworld.a(ps2allatomic.obj)
                              E:/nightly/rwsdk.sky/rwsdk/lib/sky2/librpworld.a(wrldpipe.obj) (RpAtomicPS2AllObjectSetupCallBack)
E:/nightly/rwsdk.sky/rwsdk/lib/sky2/librpworld.a(ps2allsector.obj)
                              E:/nightly/rwsdk.sky/rwsdk/lib/sky2/librpworld.a(wrldpipe.obj) (RpWorldSectorPS2AllObjectSetupCallBack)
E:/nightly/rwsdk.sky/rwsdk/lib/sky2/librpworld.a(babinwor.obj)
                              E:/nightly/rwsdk.sky/rwsdk/lib/sky2/librpworld.a(baworld.obj) (_rpBinaryWorldOpen)
E:/nightly/rwsdk.sky/rwsdk/lib/sky2/librpworld.a(baclump.obj)
                              E:/nightly/rwsdk.sky/rwsdk/lib/sky2/librpworld.a(baworld.obj) (RpAtomicGetWorldBoundingSphere)
E:/nightly/rwsdk.sky/rwsdk/lib/sky2/librpworld.a(matputil.obj)
                              E:/nightly/rwsdk.sky/rwsdk/lib/sky2/librpworld.a(wrldpipe.obj) (rpObjectDestroyMeshCache)
E:/nightly/rwsdk.sky/rwsdk/lib/sky2/librpworld.a(nodeps2manager.obj)
                              E:/nightly/rwsdk.sky/rwsdk/lib/sky2/librpworld.a(wrldpipe.obj) (RxPipelineNodePS2ManagerSetVIFOffset)
E:/nightly/rwsdk.sky/rwsdk/lib/sky2/librpworld.a(nodeps2matbridge.obj)
                              E:/nightly/rwsdk.sky/rwsdk/lib/sky2/librpworld.a(nodeps2manager.obj) (_rwRabinsBridgeNodeCode)
E:/nightly/rwsdk.sky/rwsdk/lib/sky2/librpworld.a(nodeps2matinstance.obj)
                              E:/nightly/rwsdk.sky/rwsdk/lib/sky2/librpworld.a(nodeps2manager.obj) (_rwRabinsMatInstanceCode)
E:/nightly/rwsdk.sky/rwsdk/lib/sky2/librpworld.a(nodeps2objallinone.obj)
                              E:/nightly/rwsdk.sky/rwsdk/lib/sky2/librpworld.a(nodeps2all.obj) (_skyLightQWordsWritten)
E:/nightly/rwsdk.sky/rwsdk/lib/sky2/librwcore.a(babbox.obj)
                              E:/nightly/rwsdk.sky/rwsdk/lib/sky2/librpworld.a(bageomet.obj) (RwBBoxCalculate)
E:/nightly/rwsdk.sky/rwsdk/lib/sky2/librwcore.a(babinary.obj)
                              E:/nightly/rwsdk.sky/rwsdk/lib/sky2/librtimport.a(rtimport.obj) (RwStreamFindChunk)
E:/nightly/rwsdk.sky/rwsdk/lib/sky2/librwcore.a(babinfrm.obj)
                              E:/nightly/rwsdk.sky/rwsdk/lib/sky2/librpworld.a(baclump.obj) (_rwFrameListStreamWrite)
E:/nightly/rwsdk.sky/rwsdk/lib/sky2/librwcore.a(babintex.obj)
                              E:/nightly/rwsdk.sky/rwsdk/lib/sky2/librpworld.a(bamateri.obj) (RwTextureStreamWrite)
E:/nightly/rwsdk.sky/rwsdk/lib/sky2/librwcore.a(bacamera.obj)
                              obj/sky2/camera.o (RwCameraCreate)
E:/nightly/rwsdk.sky/rwsdk/lib/sky2/librwcore.a(badevice.obj)
                              obj/sky2/skyfs.o (RwEngineRegisterPlugin)
E:/nightly/rwsdk.sky/rwsdk/lib/sky2/librwcore.a(baerr.obj)
                              E:/nightly/rwsdk.sky/rwsdk/lib/sky2/librplogo.a(rplogo.obj) (_rwerror)
E:/nightly/rwsdk.sky/rwsdk/lib/sky2/librwcore.a(baframe.obj)
                              E:/nightly/rwsdk.sky/rwsdk/lib/sky2/librwcore.a(babinfrm.obj) (frameTKList)
E:/nightly/rwsdk.sky/rwsdk/lib/sky2/librwcore.a(bafsys.obj)
                              E:/nightly/rwsdk.sky/rwsdk/lib/sky2/librwcore.a(badevice.obj) (_rwFileSystemOpen)
E:/nightly/rwsdk.sky/rwsdk/lib/sky2/librwcore.a(baimage.obj)
                              E:/nightly/rwsdk.sky/rwsdk/lib/sky2/librwcore.a(badevice.obj) (_rwImageOpen)
E:/nightly/rwsdk.sky/rwsdk/lib/sky2/librwcore.a(baimmedi.obj)
                              E:/nightly/rwsdk.sky/rwsdk/lib/sky2/librplogo.a(rplogo.obj) (RwIm2DGetNearScreenZ)
E:/nightly/rwsdk.sky/rwsdk/lib/sky2/librwcore.a(baimras.obj)
                              obj/sky2/sky.o (RwImageSetFromRaster)
E:/nightly/rwsdk.sky/rwsdk/lib/sky2/librwcore.a(balist.obj)
                              E:/nightly/rwsdk.sky/rwsdk/lib/sky2/librtimport.a(nhssplit.obj) (_rwSListCreate)
E:/nightly/rwsdk.sky/rwsdk/lib/sky2/librwcore.a(bamatrix.obj)
                              E:/nightly/rwsdk.sky/rwsdk/lib/sky2/librpworld.a(baworobj.obj) (RwMatrixOptimize)
E:/nightly/rwsdk.sky/rwsdk/lib/sky2/librwcore.a(bamemory.obj)
                              E:/nightly/rwsdk.sky/rwsdk/lib/sky2/librwcore.a(badevice.obj) (_rwFreeListAllocReal)
E:/nightly/rwsdk.sky/rwsdk/lib/sky2/librwcore.a(baraster.obj)
                              E:/nightly/rwsdk.sky/rwsdk/lib/sky2/librwcore.a(badevice.obj) (_rwRasterOpen)
E:/nightly/rwsdk.sky/rwsdk/lib/sky2/librwcore.a(baresamp.obj)
                              E:/nightly/rwsdk.sky/rwsdk/lib/sky2/librplogo.a(rplogo.obj) (RwImageResample)
E:/nightly/rwsdk.sky/rwsdk/lib/sky2/librwcore.a(baresour.obj)
                              E:/nightly/rwsdk.sky/rwsdk/lib/sky2/librwcore.a(badevice.obj) (_rwResourcesOpen)
E:/nightly/rwsdk.sky/rwsdk/lib/sky2/librwcore.a(bastream.obj)
                              E:/nightly/rwsdk.sky/rwsdk/lib/sky2/librtimport.a(rtimport.obj) (RwStreamRead)
E:/nightly/rwsdk.sky/rwsdk/lib/sky2/librwcore.a(basync.obj)
                              E:/nightly/rwsdk.sky/rwsdk/lib/sky2/librwcore.a(bacamera.obj) (_rwFrameSyncDirty)
E:/nightly/rwsdk.sky/rwsdk/lib/sky2/librwcore.a(batextur.obj)
                              E:/nightly/rwsdk.sky/rwsdk/lib/sky2/librwcore.a(babintex.obj) (textureTKList)
E:/nightly/rwsdk.sky/rwsdk/lib/sky2/librwcore.a(batkbin.obj)
                              E:/nightly/rwsdk.sky/rwsdk/lib/sky2/librpworld.a(bageomet.obj) (_rwPluginRegistryReadDataChunks)
E:/nightly/rwsdk.sky/rwsdk/lib/sky2/librwcore.a(batkreg.obj)
                              E:/nightly/rwsdk.sky/rwsdk/lib/sky2/librwcore.a(badevice.obj) (_rwPluginRegistryOpen)
E:/nightly/rwsdk.sky/rwsdk/lib/sky2/librwcore.a(batypehf.obj)
                              E:/nightly/rwsdk.sky/rwsdk/lib/sky2/librpworld.a(balight.obj) (_rwObjectHasFrameSetFrame)
E:/nightly/rwsdk.sky/rwsdk/lib/sky2/librwcore.a(bavector.obj)
                              obj/sky2/world.o (RwV3dNormalize)
E:/nightly/rwsdk.sky/rwsdk/lib/sky2/librwcore.a(resmem.obj)
                              E:/nightly/rwsdk.sky/rwsdk/lib/sky2/librwcore.a(baresour.obj) (_rwResHeapAlloc)
E:/nightly/rwsdk.sky/rwsdk/lib/sky2/librwcore.a(rwstring.obj)
                              E:/nightly/rwsdk.sky/rwsdk/lib/sky2/librwcore.a(badevice.obj) (_rwStringOpen)
E:/nightly/rwsdk.sky/rwsdk/lib/sky2/librwcore.a(baim3d.obj)
                              E:/nightly/rwsdk.sky/rwsdk/lib/sky2/librpworld.a(fastim3d.obj) (_rwIm3DModule)
E:/nightly/rwsdk.sky/rwsdk/lib/sky2/librwcore.a(bapipe.obj)
                              E:/nightly/rwsdk.sky/rwsdk/lib/sky2/librpworld.a(baworld.obj) (_rxPipelineGlobalsOffset)
E:/nightly/rwsdk.sky/rwsdk/lib/sky2/librwcore.a(nodeClipLine.obj)
                              E:/nightly/rwsdk.sky/rwsdk/lib/sky2/librwcore.a(baim3d.obj) (RxNodeDefinitionGetClipLine)
E:/nightly/rwsdk.sky/rwsdk/lib/sky2/librwcore.a(nodeClipTriangle.obj)
                              E:/nightly/rwsdk.sky/rwsdk/lib/sky2/librpworld.a(bapipew.obj) (RxNodeDefinitionGetClipTriangle)
E:/nightly/rwsdk.sky/rwsdk/lib/sky2/librwcore.a(nodeCullTriangle.obj)
                              E:/nightly/rwsdk.sky/rwsdk/lib/sky2/librpworld.a(bapipew.obj) (RxNodeDefinitionGetCullTriangle)
E:/nightly/rwsdk.sky/rwsdk/lib/sky2/librwcore.a(nodeImmInstance.obj)
                              E:/nightly/rwsdk.sky/rwsdk/lib/sky2/librwcore.a(baim3d.obj) (RxNodeDefinitionGetImmInstance)
E:/nightly/rwsdk.sky/rwsdk/lib/sky2/librwcore.a(nodeImmMangleLineIndices.obj)
                              E:/nightly/rwsdk.sky/rwsdk/lib/sky2/librwcore.a(baim3d.obj) (RxNodeDefinitionGetImmMangleLineIndices)
E:/nightly/rwsdk.sky/rwsdk/lib/sky2/librwcore.a(nodeImmMangleTriangleIndices.obj)
                              E:/nightly/rwsdk.sky/rwsdk/lib/sky2/librwcore.a(baim3d.obj) (RxNodeDefinitionGetImmMangleTriangleIndices)
E:/nightly/rwsdk.sky/rwsdk/lib/sky2/librwcore.a(nodeImmRenderSetup.obj)
                              E:/nightly/rwsdk.sky/rwsdk/lib/sky2/librwcore.a(baim3d.obj) (RxNodeDefinitionGetImmRenderSetup)
E:/nightly/rwsdk.sky/rwsdk/lib/sky2/librwcore.a(nodeImmStash.obj)
                              E:/nightly/rwsdk.sky/rwsdk/lib/sky2/librwcore.a(baim3d.obj) (RxNodeDefinitionGetImmStash)
E:/nightly/rwsdk.sky/rwsdk/lib/sky2/librwcore.a(nodeSubmitLine.obj)
                              E:/nightly/rwsdk.sky/rwsdk/lib/sky2/librwcore.a(baim3d.obj) (RxNodeDefinitionGetSubmitLine)
E:/nightly/rwsdk.sky/rwsdk/lib/sky2/librwcore.a(nodeSubmitTriangle.obj)
                              E:/nightly/rwsdk.sky/rwsdk/lib/sky2/librpworld.a(bapipew.obj) (RxNodeDefinitionGetSubmitTriangle)
E:/nightly/rwsdk.sky/rwsdk/lib/sky2/librwcore.a(nodeTransform.obj)
                              E:/nightly/rwsdk.sky/rwsdk/lib/sky2/librpworld.a(bapipew.obj) (RxNodeDefinitionGetTransform)
E:/nightly/rwsdk.sky/rwsdk/lib/sky2/librwcore.a(p2altmdl.obj)
                              E:/nightly/rwsdk.sky/rwsdk/lib/sky2/librpworld.a(nodeMaterialScatter.obj) (_rxEmbeddedPacketBetweenPipelines)
E:/nightly/rwsdk.sky/rwsdk/lib/sky2/librwcore.a(p2clpcom.obj)
                              E:/nightly/rwsdk.sky/rwsdk/lib/sky2/librwcore.a(nodeClipLine.obj) (_rwGeneratePerspClippedVertexZLO)
E:/nightly/rwsdk.sky/rwsdk/lib/sky2/librwcore.a(p2core.obj)
                              E:/nightly/rwsdk.sky/rwsdk/lib/sky2/librwcore.a(p2altmdl.obj) (_rxHeapGlobal)
E:/nightly/rwsdk.sky/rwsdk/lib/sky2/librwcore.a(p2define.obj)
                              E:/nightly/rwsdk.sky/rwsdk/lib/sky2/librpworld.a(bapipew.obj) (RxLockedPipeUnlock)
E:/nightly/rwsdk.sky/rwsdk/lib/sky2/librwcore.a(p2dep.obj)
                              E:/nightly/rwsdk.sky/rwsdk/lib/sky2/librwcore.a(p2define.obj) (_rxChaseDependencies)
E:/nightly/rwsdk.sky/rwsdk/lib/sky2/librwcore.a(p2heap.obj)
                              E:/nightly/rwsdk.sky/rwsdk/lib/sky2/librwcore.a(baim3d.obj) (RxHeapAlloc)
E:/nightly/rwsdk.sky/rwsdk/lib/sky2/librwcore.a(p2renderstate.obj)
                              E:/nightly/rwsdk.sky/rwsdk/lib/sky2/librwcore.a(p2core.obj) (RxRenderStateVectorSetDefaultRenderStateVector)
E:/nightly/rwsdk.sky/rwsdk/lib/sky2/librwcore.a(p2resort.obj)
                              E:/nightly/rwsdk.sky/rwsdk/lib/sky2/librwcore.a(p2dep.obj) (_rx_rxRadixExchangeSort)
E:/nightly/rwsdk.sky/rwsdk/lib/sky2/librwcore.a(p2stdcls.obj)
                              E:/nightly/rwsdk.sky/rwsdk/lib/sky2/librpworld.a(nodeAtomicInstance.obj) (RxClObjSpace3DVertices)
E:/nightly/rwsdk.sky/rwsdk/lib/sky2/librwcore.a(im3dpipe.obj)
                              E:/nightly/rwsdk.sky/rwsdk/lib/sky2/librwcore.a(baim3d.obj) (_rwIm3DCreatePlatformTransformPipeline)
E:/nightly/rwsdk.sky/rwsdk/lib/sky2/librwcore.a(badma.obj)
                              E:/nightly/rwsdk.sky/rwsdk/lib/sky2/librpworld.a(matinstance.obj) (sweDebugMark)
E:/nightly/rwsdk.sky/rwsdk/lib/sky2/librwcore.a(basky.obj)
                              E:/nightly/rwsdk.sky/rwsdk/lib/sky2/librwcore.a(badma.obj) (skyVideoMode)
E:/nightly/rwsdk.sky/rwsdk/lib/sky2/librwcore.a(baskytran.obj)
                              E:/nightly/rwsdk.sky/rwsdk/lib/sky2/librwcore.a(basky.obj) (matrixASMMult)
E:/nightly/rwsdk.sky/rwsdk/lib/sky2/librwcore.a(dmaalloc.obj)
                              E:/nightly/rwsdk.sky/rwsdk/lib/sky2/librpworld.a(ps2allim3d.obj) (sweCircAllocBlockSize)
E:/nightly/rwsdk.sky/rwsdk/lib/sky2/librwcore.a(skyblit.obj)
                              E:/nightly/rwsdk.sky/rwsdk/lib/sky2/librwcore.a(basky.obj) (_rwSkyRasterClearRect)
E:/nightly/rwsdk.sky/rwsdk/lib/sky2/librwcore.a(skyconv.obj)
                              E:/nightly/rwsdk.sky/rwsdk/lib/sky2/librwcore.a(basky.obj) (_rwSkyImageFindRasterFormat)
E:/nightly/rwsdk.sky/rwsdk/lib/sky2/librwcore.a(skyinst.obj)
                              E:/nightly/rwsdk.sky/rwsdk/lib/sky2/librpworld.a(ps2allim3d.obj) (skyTransType)
E:/nightly/rwsdk.sky/rwsdk/lib/sky2/librwcore.a(skywrins.obj)
                              E:/nightly/rwsdk.sky/rwsdk/lib/sky2/librpworld.a(ps2allmat.obj) (skyVU1Transforms)
E:/nightly/rwsdk.sky/rwsdk/lib/sky2/librwcore.a(texcache.obj)
                              E:/nightly/rwsdk.sky/rwsdk/lib/sky2/librwcore.a(basky.obj) (skyPrepareUploadRaster)
E:/nightly/rwsdk.sky/rwsdk/lib/sky2/librwcore.a(imrascnv.obj)
                              E:/nightly/rwsdk.sky/rwsdk/lib/sky2/librwcore.a(skyconv.obj) (_rwImageFindAlphaType)
E:/nightly/rwsdk.sky/rwsdk/lib/sky2/librwcore.a(palquant.obj)
                              E:/nightly/rwsdk.sky/rwsdk/lib/sky2/librwcore.a(batextur.obj) (_rwPalQuantAddImage)
E:/nightly/rwsdk.sky/rwsdk/lib/sky2/librwcore.a(osintf.obj)
                              E:/nightly/rwsdk.sky/rwsdk/lib/sky2/librwcore.a(baimage.obj) (_rwpathisabsolute)
E:/nightly/rwsdk.sky/rwsdk/lib/sky2/librwcore.a(bacolor.obj)
                              E:/nightly/rwsdk.sky/rwsdk/lib/sky2/librwcore.a(badevice.obj) (_rwColorOpen)
E:/nightly/rwsdk.sky/rwsdk/lib/sky2/librwcore.a(GenericPRL.obj)
                              E:/nightly/rwsdk.sky/rwsdk/lib/sky2/librwcore.a(skywrins.obj) (vu1GenericPRL)
E:/nightly/rwsdk.sky/rwsdk/lib/sky2/librwcore.a(GenericPRS.obj)
                              E:/nightly/rwsdk.sky/rwsdk/lib/sky2/librwcore.a(skyinst.obj) (vu1GenericPRS)
E:/nightly/rwsdk.sky/rwsdk/lib/sky2/librwcore.a(CullFacerPRS.obj)
                              E:/nightly/rwsdk.sky/rwsdk/lib/sky2/librwcore.a(skywrins.obj) (vu1CullFacePRS)
E:/nightly/rwsdk.sky/rwsdk/lib/sky2/librwcore.a(SegmentsPRL.obj)
                              E:/nightly/rwsdk.sky/rwsdk/lib/sky2/librwcore.a(skyinst.obj) (vu1SegmentsPRL)
E:/nightly/rwsdk.sky/rwsdk/lib/sky2/librwcore.a(SegmentsPRS.obj)
                              E:/nightly/rwsdk.sky/rwsdk/lib/sky2/librwcore.a(skyinst.obj) (vu1SegmentsPRS)
E:/nightly/rwsdk.sky/rwsdk/lib/sky2/librwcore.a(baasm.obj)
                              E:/nightly/rwsdk.sky/rwsdk/lib/sky2/librwcore.a(basky.obj) (gs_set_up)
E:/nightly/rwsdk.sky/rwsdk/lib/sky2/librwcore.a(baim2dll.obj)
                              E:/nightly/rwsdk.sky/rwsdk/lib/sky2/librwcore.a(skyinst.obj) (vu1im2dll)
E:/nightly/rwsdk.sky/rwsdk/lib/sky2/librwcore.a(baim2dtl.obj)
                              E:/nightly/rwsdk.sky/rwsdk/lib/sky2/librwcore.a(skyinst.obj) (vu1im2dtl)
E:/nightly/rwsdk.sky/rwsdk/lib/sky2/librwcore.a(banfim2dll.obj)
                              E:/nightly/rwsdk.sky/rwsdk/lib/sky2/librwcore.a(skyinst.obj) (vu1nfim2dll)
E:/nightly/rwsdk.sky/rwsdk/lib/sky2/librwcore.a(banfim2dtl.obj)
                              E:/nightly/rwsdk.sky/rwsdk/lib/sky2/librwcore.a(skyinst.obj) (vu1nfim2dtl)
E:/nightly/rwsdk.sky/rwsdk/lib/sky2/librwcore.a(nulltrans.obj)
                              E:/nightly/rwsdk.sky/rwsdk/lib/sky2/librwcore.a(skywrins.obj) (vu1nullTrans)
E:/nightly/rwsdk.sky/rwsdk/lib/sky2/librwcore.a(baevent.obj)
                              E:/nightly/rwsdk.sky/rwsdk/lib/sky2/librwcore.a(basky.obj) (_rwSkyInitConfigSystem)
E:/usr/local/sce/ee/lib/libgraph.a(graph001.o)
                              E:/nightly/rwsdk.sky/rwsdk/lib/sky2/librwcore.a(basky.obj) (sceGsResetGraph)
E:/usr/local/sce/ee/lib/libgraph.a(graph002.o)
                              E:/nightly/rwsdk.sky/rwsdk/lib/sky2/librwcore.a(baevent.obj) (sceGsResetPath)
E:/usr/local/sce/ee/lib/libgraph.a(graph011.o)
                              E:/nightly/rwsdk.sky/rwsdk/lib/sky2/librwcore.a(basky.obj) (sceGsSyncV)
E:/usr/local/sce/ee/lib/libgraph.a(graph012.o)
                              E:/nightly/rwsdk.sky/rwsdk/lib/sky2/librwcore.a(badma.obj) (sceGsSyncPath)
E:/usr/local/sce/ee/lib/libgraph.a(graph016.o)
                              E:/nightly/rwsdk.sky/rwsdk/lib/sky2/librwcore.a(basky.obj) (sceGsSetDefStoreImage)
E:/usr/local/sce/ee/lib/libgraph.a(graph018.o)
                              E:/nightly/rwsdk.sky/rwsdk/lib/sky2/librwcore.a(basky.obj) (sceGsExecStoreImage)
E:/usr/local/sce/ee/lib/libgraph.a(graph021.o)
                              E:/nightly/rwsdk.sky/rwsdk/lib/sky2/librwcore.a(badma.obj) (sceGsSetHalfOffset)
E:/usr/local/sce/ee/lib/libgraph.a(graph026.o)
                              E:/nightly/rwsdk.sky/rwsdk/lib/sky2/librwcore.a(badma.obj) (sceGsSetHalfOffset2)
E:/usr/local/sce/ee/lib/libgraph.a(graph027.o)
                              E:/nightly/rwsdk.sky/rwsdk/lib/sky2/librwcore.a(basky.obj) (sceGsSetDefDBuffDc)
E:/usr/local/sce/ee/lib/libgraph.a(graph028.o)
                              E:/nightly/rwsdk.sky/rwsdk/lib/sky2/librwcore.a(badma.obj) (sceGsSwapDBuffDc)
E:/usr/local/sce/ee/lib/libgraph.a(graph003.o)
                              E:/usr/local/sce/ee/lib/libgraph.a(graph027.o) (sceGsSetDefDispEnv)
E:/usr/local/sce/ee/lib/libgraph.a(graph004.o)
                              E:/usr/local/sce/ee/lib/libgraph.a(graph028.o) (sceGsPutDispEnv)
E:/usr/local/sce/ee/lib/libgraph.a(graph005.o)
                              E:/usr/local/sce/ee/lib/libgraph.a(graph027.o) (sceGszbufaddr)
E:/usr/local/sce/ee/lib/libgraph.a(graph006.o)
                              E:/usr/local/sce/ee/lib/libgraph.a(graph027.o) (sceGsSetDefDrawEnv)
E:/usr/local/sce/ee/lib/libgraph.a(graph007.o)
                              E:/usr/local/sce/ee/lib/libgraph.a(graph027.o) (sceGsSetDefClear)
E:/usr/local/sce/ee/lib/libgraph.a(graph008.o)
                              E:/usr/local/sce/ee/lib/libgraph.a(graph028.o) (sceGsPutDrawEnv)
E:/usr/local/sce/ee/lib/libgraph.a(graph022.o)
                              E:/usr/local/sce/ee/lib/libgraph.a(graph027.o) (sceGsSetDefDrawEnv2)
E:/usr/local/sce/ee/lib/libdma.a(libdma.o)
                              E:/nightly/rwsdk.sky/rwsdk/lib/sky2/librwcore.a(badma.obj) (sceDmaGetChan)
E:/usr/local/sce/ee/lib/libpad.a(libpad.o)
                              obj/sky2/sky.o (scePadInit)
E:/usr/local/sce/ee/gcc/lib/gcc-lib/ee\2.95.2\../../../../ee\lib\libm.a(sf_ceil.o)
                              obj/sky2/sky.o (ceilf)
E:/usr/local/sce/ee/gcc/lib/gcc-lib/ee\2.95.2\../../../../ee\lib\libm.a(sf_cos.o)
                              obj/sky2/world.o (cosf)
E:/usr/local/sce/ee/gcc/lib/gcc-lib/ee\2.95.2\../../../../ee\lib\libm.a(sf_floor.o)
                              E:/nightly/rwsdk.sky/rwsdk/lib/sky2/librtimport.a(nhscond.obj) (floorf)
E:/usr/local/sce/ee/gcc/lib/gcc-lib/ee\2.95.2\../../../../ee\lib\libm.a(sf_sin.o)
                              obj/sky2/world.o (sinf)
E:/usr/local/sce/ee/gcc/lib/gcc-lib/ee\2.95.2\../../../../ee\lib\libm.a(w_pow.o)
                              E:/nightly/rwsdk.sky/rwsdk/lib/sky2/librtpng.a(pngrtran.obj) (pow)
E:/usr/local/sce/ee/gcc/lib/gcc-lib/ee\2.95.2\../../../../ee\lib\libm.a(w_sqrt.o)
                              E:/nightly/rwsdk.sky/rwsdk/lib/sky2/librtimport.a(nhscond.obj) (sqrt)
E:/usr/local/sce/ee/gcc/lib/gcc-lib/ee\2.95.2\../../../../ee\lib\libm.a(wf_acos.o)
                              obj/sky2/skeleton.o (acosf)
E:/usr/local/sce/ee/gcc/lib/gcc-lib/ee\2.95.2\../../../../ee\lib\libm.a(wf_atan2.o)
                              E:/nightly/rwsdk.sky/rwsdk/lib/sky2/librtimport.a(nhssplit.obj) (atan2f)
E:/usr/local/sce/ee/gcc/lib/gcc-lib/ee\2.95.2\../../../../ee\lib\libm.a(wf_pow.o)
                              E:/nightly/rwsdk.sky/rwsdk/lib/sky2/librwcore.a(baimage.obj) (powf)
E:/usr/local/sce/ee/gcc/lib/gcc-lib/ee\2.95.2\../../../../ee\lib\libm.a(e_pow.o)
                              E:/usr/local/sce/ee/gcc/lib/gcc-lib/ee\2.95.2\../../../../ee\lib\libm.a(w_pow.o) (__ieee754_pow)
E:/usr/local/sce/ee/gcc/lib/gcc-lib/ee\2.95.2\../../../../ee\lib\libm.a(e_sqrt.o)
                              E:/usr/local/sce/ee/gcc/lib/gcc-lib/ee\2.95.2\../../../../ee\lib\libm.a(w_sqrt.o) (__ieee754_sqrt)
E:/usr/local/sce/ee/gcc/lib/gcc-lib/ee\2.95.2\../../../../ee\lib\libm.a(ef_acos.o)
                              E:/usr/local/sce/ee/gcc/lib/gcc-lib/ee\2.95.2\../../../../ee\lib\libm.a(wf_acos.o) (__ieee754_acosf)
E:/usr/local/sce/ee/gcc/lib/gcc-lib/ee\2.95.2\../../../../ee\lib\libm.a(ef_atan2.o)
                              E:/usr/local/sce/ee/gcc/lib/gcc-lib/ee\2.95.2\../../../../ee\lib\libm.a(wf_atan2.o) (__ieee754_atan2f)
E:/usr/local/sce/ee/gcc/lib/gcc-lib/ee\2.95.2\../../../../ee\lib\libm.a(ef_pow.o)
                              E:/usr/local/sce/ee/gcc/lib/gcc-lib/ee\2.95.2\../../../../ee\lib\libm.a(wf_pow.o) (__ieee754_powf)
E:/usr/local/sce/ee/gcc/lib/gcc-lib/ee\2.95.2\../../../../ee\lib\libm.a(ef_rem_pio2.o)
                              E:/usr/local/sce/ee/gcc/lib/gcc-lib/ee\2.95.2\../../../../ee\lib\libm.a(sf_cos.o) (__ieee754_rem_pio2f)
E:/usr/local/sce/ee/gcc/lib/gcc-lib/ee\2.95.2\../../../../ee\lib\libm.a(ef_sqrt.o)
                              E:/usr/local/sce/ee/gcc/lib/gcc-lib/ee\2.95.2\../../../../ee\lib\libm.a(ef_acos.o) (__ieee754_sqrtf)
E:/usr/local/sce/ee/gcc/lib/gcc-lib/ee\2.95.2\../../../../ee\lib\libm.a(kf_cos.o)
                              E:/usr/local/sce/ee/gcc/lib/gcc-lib/ee\2.95.2\../../../../ee\lib\libm.a(sf_cos.o) (__kernel_cosf)
E:/usr/local/sce/ee/gcc/lib/gcc-lib/ee\2.95.2\../../../../ee\lib\libm.a(kf_rem_pio2.o)
                              E:/usr/local/sce/ee/gcc/lib/gcc-lib/ee\2.95.2\../../../../ee\lib\libm.a(ef_rem_pio2.o) (__kernel_rem_pio2f)
E:/usr/local/sce/ee/gcc/lib/gcc-lib/ee\2.95.2\../../../../ee\lib\libm.a(kf_sin.o)
                              E:/usr/local/sce/ee/gcc/lib/gcc-lib/ee\2.95.2\../../../../ee\lib\libm.a(sf_cos.o) (__kernel_sinf)
E:/usr/local/sce/ee/gcc/lib/gcc-lib/ee\2.95.2\../../../../ee\lib\libm.a(s_fabs.o)
                              E:/usr/local/sce/ee/gcc/lib/gcc-lib/ee\2.95.2\../../../../ee\lib\libm.a(e_pow.o) (fabs)
E:/usr/local/sce/ee/gcc/lib/gcc-lib/ee\2.95.2\../../../../ee\lib\libm.a(s_finite.o)
                              E:/usr/local/sce/ee/gcc/lib/gcc-lib/ee\2.95.2\../../../../ee\lib\libm.a(w_pow.o) (finite)
E:/usr/local/sce/ee/gcc/lib/gcc-lib/ee\2.95.2\../../../../ee\lib\libm.a(s_infconst.o)
                              E:/usr/local/sce/ee/gcc/lib/gcc-lib/ee\2.95.2\../../../../ee\lib\libm.a(w_pow.o) (__infinity)
E:/usr/local/sce/ee/gcc/lib/gcc-lib/ee\2.95.2\../../../../ee\lib\libm.a(s_isnan.o)
                              E:/usr/local/sce/ee/gcc/lib/gcc-lib/ee\2.95.2\../../../../ee\lib\libm.a(w_pow.o) (isnan)
E:/usr/local/sce/ee/gcc/lib/gcc-lib/ee\2.95.2\../../../../ee\lib\libm.a(s_lib_ver.o)
                              E:/usr/local/sce/ee/gcc/lib/gcc-lib/ee\2.95.2\../../../../ee\lib\libm.a(w_pow.o) (__fdlib_version)
E:/usr/local/sce/ee/gcc/lib/gcc-lib/ee\2.95.2\../../../../ee\lib\libm.a(s_matherr.o)
                              E:/usr/local/sce/ee/gcc/lib/gcc-lib/ee\2.95.2\../../../../ee\lib\libm.a(w_pow.o) (matherr)
E:/usr/local/sce/ee/gcc/lib/gcc-lib/ee\2.95.2\../../../../ee\lib\libm.a(s_rint.o)
                              E:/usr/local/sce/ee/gcc/lib/gcc-lib/ee\2.95.2\../../../../ee\lib\libm.a(w_pow.o) (rint)
E:/usr/local/sce/ee/gcc/lib/gcc-lib/ee\2.95.2\../../../../ee\lib\libm.a(s_scalbn.o)
                              E:/usr/local/sce/ee/gcc/lib/gcc-lib/ee\2.95.2\../../../../ee\lib\libm.a(e_pow.o) (scalbn)
E:/usr/local/sce/ee/gcc/lib/gcc-lib/ee\2.95.2\../../../../ee\lib\libm.a(sf_atan.o)
                              E:/usr/local/sce/ee/gcc/lib/gcc-lib/ee\2.95.2\../../../../ee\lib\libm.a(ef_atan2.o) (atanf)
E:/usr/local/sce/ee/gcc/lib/gcc-lib/ee\2.95.2\../../../../ee\lib\libm.a(sf_fabs.o)
                              E:/usr/local/sce/ee/gcc/lib/gcc-lib/ee\2.95.2\../../../../ee\lib\libm.a(wf_acos.o) (fabsf)
E:/usr/local/sce/ee/gcc/lib/gcc-lib/ee\2.95.2\../../../../ee\lib\libm.a(sf_finite.o)
                              E:/usr/local/sce/ee/gcc/lib/gcc-lib/ee\2.95.2\../../../../ee\lib\libm.a(wf_pow.o) (finitef)
E:/usr/local/sce/ee/gcc/lib/gcc-lib/ee\2.95.2\../../../../ee\lib\libm.a(sf_isnan.o)
                              E:/usr/local/sce/ee/gcc/lib/gcc-lib/ee\2.95.2\../../../../ee\lib\libm.a(wf_acos.o) (isnanf)
E:/usr/local/sce/ee/gcc/lib/gcc-lib/ee\2.95.2\../../../../ee\lib\libm.a(sf_scalbn.o)
                              E:/usr/local/sce/ee/gcc/lib/gcc-lib/ee\2.95.2\../../../../ee\lib\libm.a(ef_pow.o) (scalbnf)
E:/usr/local/sce/ee/gcc/lib/gcc-lib/ee\2.95.2\../../../../ee\lib\libm.a(s_copysign.o)
                              E:/usr/local/sce/ee/gcc/lib/gcc-lib/ee\2.95.2\../../../../ee\lib\libm.a(s_scalbn.o) (copysign)
E:/usr/local/sce/ee/gcc/lib/gcc-lib/ee\2.95.2\../../../../ee\lib\libm.a(sf_copysign.o)
                              E:/usr/local/sce/ee/gcc/lib/gcc-lib/ee\2.95.2\../../../../ee\lib\libm.a(sf_scalbn.o) (copysignf)
E:/usr/local/sce/ee/gcc/lib/gcc-lib/ee\2.95.2\libgcc.a(__main.o)
                              obj/sky2/sky.o (__main)
E:/usr/local/sce/ee/gcc/lib/gcc-lib/ee\2.95.2\libgcc.a(_ctors.o)
                              E:/usr/local/sce/ee/gcc/lib/gcc-lib/ee\2.95.2\libgcc.a(__main.o) (__CTOR_LIST__)
E:/usr/local/sce/ee/gcc/lib/gcc-lib/ee\2.95.2\libgcc.a(_fixdfdi.o)
                              E:/nightly/rwsdk.sky/rwsdk/lib/sky2/librtpng.a(pngset.obj) (__fixdfdi)
E:/usr/local/sce/ee/gcc/lib/gcc-lib/ee\2.95.2\libgcc.a(_fixunsdfdi.o)
                              E:/nightly/rwsdk.sky/rwsdk/lib/sky2/librtpng.a(pngrtran.obj) (__fixunsdfdi)
E:/usr/local/sce/ee/gcc/lib/gcc-lib/ee\2.95.2\libgcc.a(_floatdidf.o)
                              E:/nightly/rwsdk.sky/rwsdk/lib/sky2/librtpng.a(pngrtran.obj) (__floatdidf)
E:/usr/local/sce/ee/gcc/lib/gcc-lib/ee\2.95.2\libgcc.a(_floatdisf.o)
                              E:/nightly/rwsdk.sky/rwsdk/lib/sky2/librtpng.a(pngget.obj) (__floatdisf)
E:/usr/local/sce/ee/gcc/lib/gcc-lib/ee\2.95.2\libgcc.a(_muldi3.o)
                              E:/nightly/rwsdk.sky/rwsdk/lib/sky2/librtpng.a(pngread.obj) (__muldi3)
E:/usr/local/sce/ee/gcc/lib/gcc-lib/ee\2.95.2\libgcc.a(_udivdi3.o)
                              obj/sky2/sky.o (__udivdi3)
E:/usr/local/sce/ee/gcc/lib/gcc-lib/ee\2.95.2\libgcc.a(_umoddi3.o)
                              E:/nightly/rwsdk.sky/rwsdk/lib/sky2/librtpng.a(pngrtran.obj) (__umoddi3)
E:/usr/local/sce/ee/gcc/lib/gcc-lib/ee\2.95.2\libgcc.a(dp-bit.o)
                              E:/nightly/rwsdk.sky/rwsdk/lib/sky2/librtimport.a(nhscond.obj) (dpadd)
E:/usr/local/sce/ee/gcc/lib/gcc-lib/ee\2.95.2\libgcc.a(fp-bit.o)
                              E:/nightly/rwsdk.sky/rwsdk/lib/sky2/librpworld.a(nodeWorldSectorInstance.obj) (fptoui)
E:/usr/local/sce/ee/gcc/lib/gcc-lib/ee\2.95.2\../../../../ee\lib\libc.a(calloc.o)
                              E:/nightly/rwsdk.sky/rwsdk/lib/sky2/librtpng.a(zutil.obj) (calloc)
E:/usr/local/sce/ee/gcc/lib/gcc-lib/ee\2.95.2\../../../../ee\lib\libc.a(callocr.o)
                              E:/usr/local/sce/ee/gcc/lib/gcc-lib/ee\2.95.2\../../../../ee\lib\libc.a(calloc.o) (_calloc_r)
E:/usr/local/sce/ee/gcc/lib/gcc-lib/ee\2.95.2\../../../../ee\lib\libc.a(ctype_.o)
                              obj/sky2/skeleton.o (_ctype_)
E:/usr/local/sce/ee/gcc/lib/gcc-lib/ee\2.95.2\../../../../ee\lib\libc.a(errno.o)
                              E:/usr/local/sce/ee/gcc/lib/gcc-lib/ee\2.95.2\../../../../ee\lib\libm.a(w_pow.o) (__errno)
E:/usr/local/sce/ee/gcc/lib/gcc-lib/ee\2.95.2\../../../../ee\lib\libc.a(fclose.o)
                              E:/nightly/rwsdk.sky/rwsdk/lib/sky2/librwcore.a(bafsys.obj) (fclose)
E:/usr/local/sce/ee/gcc/lib/gcc-lib/ee\2.95.2\../../../../ee\lib\libc.a(feof.o)
                              E:/nightly/rwsdk.sky/rwsdk/lib/sky2/librwcore.a(bafsys.obj) (feof)
E:/usr/local/sce/ee/gcc/lib/gcc-lib/ee\2.95.2\../../../../ee\lib\libc.a(fflush.o)
                              E:/nightly/rwsdk.sky/rwsdk/lib/sky2/librwcore.a(bafsys.obj) (fflush)
E:/usr/local/sce/ee/gcc/lib/gcc-lib/ee\2.95.2\../../../../ee\lib\libc.a(fgets.o)
                              E:/nightly/rwsdk.sky/rwsdk/lib/sky2/librwcore.a(bafsys.obj) (fgets)
E:/usr/local/sce/ee/gcc/lib/gcc-lib/ee\2.95.2\../../../../ee\lib\libc.a(findfp.o)
                              E:/usr/local/sce/ee/gcc/lib/gcc-lib/ee\2.95.2\../../../../ee\lib\libc.a(fclose.o) (__sinit)
E:/usr/local/sce/ee/gcc/lib/gcc-lib/ee\2.95.2\../../../../ee\lib\libc.a(fopen.o)
                              E:/nightly/rwsdk.sky/rwsdk/lib/sky2/librwcore.a(bafsys.obj) (fopen)
E:/usr/local/sce/ee/gcc/lib/gcc-lib/ee\2.95.2\../../../../ee\lib\libc.a(fputs.o)
                              E:/nightly/rwsdk.sky/rwsdk/lib/sky2/librwcore.a(bafsys.obj) (fputs)
E:/usr/local/sce/ee/gcc/lib/gcc-lib/ee\2.95.2\../../../../ee\lib\libc.a(fread.o)
                              E:/nightly/rwsdk.sky/rwsdk/lib/sky2/librwcore.a(bafsys.obj) (fread)
E:/usr/local/sce/ee/gcc/lib/gcc-lib/ee\2.95.2\../../../../ee\lib\libc.a(freer.o)
                              E:/usr/local/sce/ee/gcc/lib/gcc-lib/ee\2.95.2\../../../../ee\lib\libc.a(fclose.o) (_free_r)
E:/usr/local/sce/ee/gcc/lib/gcc-lib/ee\2.95.2\../../../../ee\lib\libc.a(fseek.o)
                              E:/nightly/rwsdk.sky/rwsdk/lib/sky2/librwcore.a(bafsys.obj) (fseek)
E:/usr/local/sce/ee/gcc/lib/gcc-lib/ee\2.95.2\../../../../ee\lib\libc.a(fstatr.o)
                              E:/usr/local/sce/ee/gcc/lib/gcc-lib/ee\2.95.2\../../../../ee\lib\libc.a(fseek.o) (_fstat_r)
E:/usr/local/sce/ee/gcc/lib/gcc-lib/ee\2.95.2\../../../../ee\lib\libc.a(ftell.o)
                              E:/nightly/rwsdk.sky/rwsdk/lib/sky2/librwcore.a(bafsys.obj) (ftell)
E:/usr/local/sce/ee/gcc/lib/gcc-lib/ee\2.95.2\../../../../ee\lib\libc.a(fvwrite.o)
                              E:/usr/local/sce/ee/gcc/lib/gcc-lib/ee\2.95.2\../../../../ee\lib\libc.a(fputs.o) (__sfvwrite)
E:/usr/local/sce/ee/gcc/lib/gcc-lib/ee\2.95.2\../../../../ee\lib\libc.a(fwalk.o)
                              E:/usr/local/sce/ee/gcc/lib/gcc-lib/ee\2.95.2\../../../../ee\lib\libc.a(fflush.o) (_fwalk)
E:/usr/local/sce/ee/gcc/lib/gcc-lib/ee\2.95.2\../../../../ee\lib\libc.a(fwrite.o)
                              E:/nightly/rwsdk.sky/rwsdk/lib/sky2/librwcore.a(bafsys.obj) (fwrite)
E:/usr/local/sce/ee/gcc/lib/gcc-lib/ee\2.95.2\../../../../ee\lib\libc.a(impure.o)
                              E:/usr/local/sce/ee/gcc/lib/gcc-lib/ee\2.95.2\../../../../ee\lib\libc.a(calloc.o) (_impure_ptr)
E:/usr/local/sce/ee/gcc/lib/gcc-lib/ee\2.95.2\../../../../ee\lib\libc.a(makebuf.o)
                              E:/usr/local/sce/ee/gcc/lib/gcc-lib/ee\2.95.2\../../../../ee\lib\libc.a(fseek.o) (__smakebuf)
E:/usr/local/sce/ee/gcc/lib/gcc-lib/ee\2.95.2\../../../../ee\lib\libc.a(malloc.o)
                              obj/sky2/sky.o (malloc)
E:/usr/local/sce/ee/gcc/lib/gcc-lib/ee\2.95.2\../../../../ee\lib\libc.a(mallocr.o)
                              E:/usr/local/sce/ee/gcc/lib/gcc-lib/ee\2.95.2\../../../../ee\lib\libc.a(freer.o) (__malloc_av_)
E:/usr/local/sce/ee/gcc/lib/gcc-lib/ee\2.95.2\../../../../ee\lib\libc.a(memchr.o)
                              E:/usr/local/sce/ee/gcc/lib/gcc-lib/ee\2.95.2\../../../../ee\lib\libc.a(fgets.o) (memchr)
E:/usr/local/sce/ee/gcc/lib/gcc-lib/ee\2.95.2\../../../../ee\lib\libc.a(memcmp.o)
                              E:/nightly/rwsdk.sky/rwsdk/lib/sky2/librtpng.a(png.obj) (memcmp)
E:/usr/local/sce/ee/gcc/lib/gcc-lib/ee\2.95.2\../../../../ee\lib\libc.a(memcpy.o)
                              obj/sky2/sky.o (memcpy)
E:/usr/local/sce/ee/gcc/lib/gcc-lib/ee\2.95.2\../../../../ee\lib\libc.a(memmove.o)
                              E:/nightly/rwsdk.sky/rwsdk/lib/sky2/librtimport.a(nhsworld.obj) (memmove)
E:/usr/local/sce/ee/gcc/lib/gcc-lib/ee\2.95.2\../../../../ee\lib\libc.a(memset.o)
                              obj/sky2/menu.o (memset)
E:/usr/local/sce/ee/gcc/lib/gcc-lib/ee\2.95.2\../../../../ee\lib\libc.a(mlock.o)
                              E:/usr/local/sce/ee/gcc/lib/gcc-lib/ee\2.95.2\../../../../ee\lib\libc.a(freer.o) (__malloc_lock)
E:/usr/local/sce/ee/gcc/lib/gcc-lib/ee\2.95.2\../../../../ee\lib\libc.a(openr.o)
                              E:/usr/local/sce/ee/gcc/lib/gcc-lib/ee\2.95.2\../../../../ee\lib\libc.a(fopen.o) (_open_r)
E:/usr/local/sce/ee/gcc/lib/gcc-lib/ee\2.95.2\../../../../ee\lib\libc.a(printf.o)
                              obj/sky2/sky.o (printf)
E:/usr/local/sce/ee/gcc/lib/gcc-lib/ee\2.95.2\../../../../ee\lib\libc.a(qsort.o)
                              E:/nightly/rwsdk.sky/rwsdk/lib/sky2/librtimport.a(nhscond.obj) (qsort)
E:/usr/local/sce/ee/gcc/lib/gcc-lib/ee\2.95.2\../../../../ee\lib\libc.a(realloc.o)
                              E:/nightly/rwsdk.sky/rwsdk/lib/sky2/librwcore.a(bamemory.obj) (realloc)
E:/usr/local/sce/ee/gcc/lib/gcc-lib/ee\2.95.2\../../../../ee\lib\libc.a(reallocr.o)
                              E:/usr/local/sce/ee/gcc/lib/gcc-lib/ee\2.95.2\../../../../ee\lib\libc.a(realloc.o) (_realloc_r)
E:/usr/local/sce/ee/gcc/lib/gcc-lib/ee\2.95.2\../../../../ee\lib\libc.a(refill.o)
                              E:/usr/local/sce/ee/gcc/lib/gcc-lib/ee\2.95.2\../../../../ee\lib\libc.a(fgets.o) (__srefill)
E:/usr/local/sce/ee/gcc/lib/gcc-lib/ee\2.95.2\../../../../ee\lib\libc.a(sbrkr.o)
                              E:/usr/local/sce/ee/gcc/lib/gcc-lib/ee\2.95.2\../../../../ee\lib\libc.a(freer.o) (_sbrk_r)
E:/usr/local/sce/ee/gcc/lib/gcc-lib/ee\2.95.2\../../../../ee\lib\libc.a(setjmp.o)
                              E:/nightly/rwsdk.sky/rwsdk/lib/sky2/librtpng.a(rtpng.obj) (setjmp)
E:/usr/local/sce/ee/gcc/lib/gcc-lib/ee\2.95.2\../../../../ee\lib\libc.a(sprintf.o)
                              obj/sky2/sky.o (sprintf)
E:/usr/local/sce/ee/gcc/lib/gcc-lib/ee\2.95.2\../../../../ee\lib\libc.a(sscanf.o)
                              E:/nightly/rwsdk.sky/rwsdk/lib/sky2/librwcore.a(rwstring.obj) (sscanf)
E:/usr/local/sce/ee/gcc/lib/gcc-lib/ee\2.95.2\../../../../ee\lib\libc.a(stdio.o)
                              E:/usr/local/sce/ee/gcc/lib/gcc-lib/ee\2.95.2\../../../../ee\lib\libc.a(findfp.o) (__sread)
E:/usr/local/sce/ee/gcc/lib/gcc-lib/ee\2.95.2\../../../../ee\lib\libc.a(strcat.o)
                              obj/sky2/sky.o (strcat)
E:/usr/local/sce/ee/gcc/lib/gcc-lib/ee\2.95.2\../../../../ee\lib\libc.a(strchr.o)
                              obj/sky2/skyfs.o (strchr)
E:/usr/local/sce/ee/gcc/lib/gcc-lib/ee\2.95.2\../../../../ee\lib\libc.a(strcmp.o)
                              obj/sky2/skeleton.o (strcmp)
E:/usr/local/sce/ee/gcc/lib/gcc-lib/ee\2.95.2\../../../../ee\lib\libc.a(strcpy.o)
                              obj/sky2/sky.o (strcpy)
E:/usr/local/sce/ee/gcc/lib/gcc-lib/ee\2.95.2\../../../../ee\lib\libc.a(strdup.o)
                              obj/sky2/sky.o (strdup)
E:/usr/local/sce/ee/gcc/lib/gcc-lib/ee\2.95.2\../../../../ee\lib\libc.a(strdup_r.o)
                              E:/usr/local/sce/ee/gcc/lib/gcc-lib/ee\2.95.2\../../../../ee\lib\libc.a(strdup.o) (_strdup_r)
E:/usr/local/sce/ee/gcc/lib/gcc-lib/ee\2.95.2\../../../../ee\lib\libc.a(strlen.o)
                              obj/sky2/skyfs.o (strlen)
E:/usr/local/sce/ee/gcc/lib/gcc-lib/ee\2.95.2\../../../../ee\lib\libc.a(strncat.o)
                              E:/nightly/rwsdk.sky/rwsdk/lib/sky2/librwcore.a(rwstring.obj) (strncat)
E:/usr/local/sce/ee/gcc/lib/gcc-lib/ee\2.95.2\../../../../ee\lib\libc.a(strncpy.o)
                              obj/sky2/skyfs.o (strncpy)
E:/usr/local/sce/ee/gcc/lib/gcc-lib/ee\2.95.2\../../../../ee\lib\libc.a(strrchr.o)
                              obj/sky2/skyfs.o (strrchr)
E:/usr/local/sce/ee/gcc/lib/gcc-lib/ee\2.95.2\../../../../ee\lib\libc.a(strstr.o)
                              E:/nightly/rwsdk.sky/rwsdk/lib/sky2/librwcore.a(rwstring.obj) (strstr)
E:/usr/local/sce/ee/gcc/lib/gcc-lib/ee\2.95.2\../../../../ee\lib\libc.a(strtod.o)
                              E:/nightly/rwsdk.sky/rwsdk/lib/sky2/librtpng.a(pngrutil.obj) (strtod)
E:/usr/local/sce/ee/gcc/lib/gcc-lib/ee\2.95.2\../../../../ee\lib\libc.a(strtok.o)
                              E:/nightly/rwsdk.sky/rwsdk/lib/sky2/librwcore.a(rwstring.obj) (strtok)
E:/usr/local/sce/ee/gcc/lib/gcc-lib/ee\2.95.2\../../../../ee\lib\libc.a(strtok_r.o)
                              E:/usr/local/sce/ee/gcc/lib/gcc-lib/ee\2.95.2\../../../../ee\lib\libc.a(strtok.o) (strtok_r)
E:/usr/local/sce/ee/gcc/lib/gcc-lib/ee\2.95.2\../../../../ee\lib\libc.a(vfprintf.o)
                              E:/usr/local/sce/ee/gcc/lib/gcc-lib/ee\2.95.2\../../../../ee\lib\libc.a(printf.o) (vfprintf)
E:/usr/local/sce/ee/gcc/lib/gcc-lib/ee\2.95.2\../../../../ee\lib\libc.a(vfscanf.o)
                              E:/usr/local/sce/ee/gcc/lib/gcc-lib/ee\2.95.2\../../../../ee\lib\libc.a(sscanf.o) (__svfscanf)
E:/usr/local/sce/ee/gcc/lib/gcc-lib/ee\2.95.2\../../../../ee\lib\libc.a(vsprintf.o)
                              E:/nightly/rwsdk.sky/rwsdk/lib/sky2/librwcore.a(rwstring.obj) (vsprintf)
E:/usr/local/sce/ee/gcc/lib/gcc-lib/ee\2.95.2\../../../../ee\lib\libc.a(writer.o)
                              E:/usr/local/sce/ee/gcc/lib/gcc-lib/ee\2.95.2\../../../../ee\lib\libc.a(stdio.o) (_write_r)
E:/usr/local/sce/ee/gcc/lib/gcc-lib/ee\2.95.2\../../../../ee\lib\libc.a(wsetup.o)
                              E:/usr/local/sce/ee/gcc/lib/gcc-lib/ee\2.95.2\../../../../ee\lib\libc.a(fvwrite.o) (__swsetup)
E:/usr/local/sce/ee/gcc/lib/gcc-lib/ee\2.95.2\../../../../ee\lib\libc.a(atof.o)
                              E:/usr/local/sce/ee/gcc/lib/gcc-lib/ee\2.95.2\../../../../ee\lib\libc.a(vfscanf.o) (atof)
E:/usr/local/sce/ee/gcc/lib/gcc-lib/ee\2.95.2\../../../../ee\lib\libc.a(closer.o)
                              E:/usr/local/sce/ee/gcc/lib/gcc-lib/ee\2.95.2\../../../../ee\lib\libc.a(stdio.o) (_close_r)
E:/usr/local/sce/ee/gcc/lib/gcc-lib/ee\2.95.2\../../../../ee\lib\libc.a(dtoa.o)
                              E:/usr/local/sce/ee/gcc/lib/gcc-lib/ee\2.95.2\../../../../ee\lib\libc.a(vfprintf.o) (_dtoa_r)
E:/usr/local/sce/ee/gcc/lib/gcc-lib/ee\2.95.2\../../../../ee\lib\libc.a(flags.o)
                              E:/usr/local/sce/ee/gcc/lib/gcc-lib/ee\2.95.2\../../../../ee\lib\libc.a(fopen.o) (__sflags)
E:/usr/local/sce/ee/gcc/lib/gcc-lib/ee\2.95.2\../../../../ee\lib\libc.a(locale.o)
                              E:/usr/local/sce/ee/gcc/lib/gcc-lib/ee\2.95.2\../../../../ee\lib\libc.a(vfprintf.o) (__mb_cur_max)
E:/usr/local/sce/ee/gcc/lib/gcc-lib/ee\2.95.2\../../../../ee\lib\libc.a(lseekr.o)
                              E:/usr/local/sce/ee/gcc/lib/gcc-lib/ee\2.95.2\../../../../ee\lib\libc.a(stdio.o) (_lseek_r)
E:/usr/local/sce/ee/gcc/lib/gcc-lib/ee\2.95.2\../../../../ee\lib\libc.a(mbtowc_r.o)
                              E:/usr/local/sce/ee/gcc/lib/gcc-lib/ee\2.95.2\../../../../ee\lib\libc.a(vfprintf.o) (_mbtowc_r)
E:/usr/local/sce/ee/gcc/lib/gcc-lib/ee\2.95.2\../../../../ee\lib\libc.a(mprec.o)
                              E:/usr/local/sce/ee/gcc/lib/gcc-lib/ee\2.95.2\../../../../ee\lib\libc.a(strtod.o) (_Balloc)
E:/usr/local/sce/ee/gcc/lib/gcc-lib/ee\2.95.2\../../../../ee\lib\libc.a(readr.o)
                              E:/usr/local/sce/ee/gcc/lib/gcc-lib/ee\2.95.2\../../../../ee\lib\libc.a(stdio.o) (_read_r)
E:/usr/local/sce/ee/gcc/lib/gcc-lib/ee\2.95.2\../../../../ee\lib\libc.a(s_isinf.o)
                              E:/usr/local/sce/ee/gcc/lib/gcc-lib/ee\2.95.2\../../../../ee\lib\libc.a(vfprintf.o) (isinf)
E:/usr/local/sce/ee/gcc/lib/gcc-lib/ee\2.95.2\../../../../ee\lib\libc.a(strtol.o)
                              E:/usr/local/sce/ee/gcc/lib/gcc-lib/ee\2.95.2\../../../../ee\lib\libc.a(vfscanf.o) (strtol)
E:/usr/local/sce/ee/gcc/lib/gcc-lib/ee\2.95.2\../../../../ee\lib\libc.a(strtoul.o)
                              E:/usr/local/sce/ee/gcc/lib/gcc-lib/ee\2.95.2\../../../../ee\lib\libc.a(vfscanf.o) (strtoul)
E:/usr/local/sce/ee/gcc/lib/gcc-lib/ee\2.95.2\../../../../ee\lib\libc.a(ungetc.o)
                              E:/usr/local/sce/ee/gcc/lib/gcc-lib/ee\2.95.2\../../../../ee\lib\libc.a(vfscanf.o) (ungetc)
E:/usr/local/sce/ee/lib\libkernl.a(klib.o)
                              E:/usr/local/sce/ee/lib/libgraph.a(graph001.o) (SetGsCrt)
E:/usr/local/sce/ee/lib\libkernl.a(glue.o)
                              E:/usr/local/sce/ee/lib/libgraph.a(graph011.o) (VSync)
E:/usr/local/sce/ee/lib\libkernl.a(cache.o)
                              E:/nightly/rwsdk.sky/rwsdk/lib/sky2/librpworld.a(native.obj) (SyncDCache)
E:/usr/local/sce/ee/lib\libkernl.a(intr.o)
                              obj/sky2/sky.o (DisableIntc)
E:/usr/local/sce/ee/lib\libkernl.a(tty.o)
                              E:/usr/local/sce/ee/lib\libkernl.a(glue.o) (sceTtyWrite)
E:/usr/local/sce/ee/lib\libkernl.a(kprintf.o)
                              E:/usr/local/sce/ee/lib\libkernl.a(tty.o) (kprintf)
E:/usr/local/sce/ee/lib\libkernl.a(sifrpc.o)
                              obj/sky2/sky.o (sceSifInitRpc)
E:/usr/local/sce/ee/lib\libkernl.a(filestub.o)
                              obj/sky2/skyfs.o (sceOpen)
E:/usr/local/sce/ee/lib\libkernl.a(iopheap.o)
                              obj/sky2/sky.o (sceSifInitIopHeap)
E:/usr/local/sce/ee/lib\libkernl.a(eeloadfile.o)
                              obj/sky2/sky.o (sceSifLoadModule)
E:/usr/local/sce/ee/lib\libkernl.a(diei.o)
                              E:/nightly/rwsdk.sky/rwsdk/lib/sky2/librpworld.a(ps2allim3d.obj) (DIntr)
E:/usr/local/sce/ee/lib\libkernl.a(initsys.o)
                              crt0.o (_InitSys)
E:/usr/local/sce/ee/lib\libkernl.a(thread.o)
                              E:/usr/local/sce/ee/lib\libkernl.a(initsys.o) (InitThread)
E:/usr/local/sce/ee/lib\libkernl.a(deci2.o)
                              E:/usr/local/sce/ee/lib\libkernl.a(tty.o) (sceDeci2Open)
E:/usr/local/sce/ee/lib\libkernl.a(sifcmd.o)
                              E:/usr/local/sce/ee/lib\libkernl.a(sifrpc.o) (sceSifGetSreg)
E:/usr/local/sce/ee/gcc/lib/gcc-lib/ee\2.95.2\libgcc.a(_divdi3.o)
                              E:/usr/local/sce/ee/lib\libkernl.a(kprintf.o) (__divdi3)
E:/usr/local/sce/ee/gcc/lib/gcc-lib/ee\2.95.2\libgcc.a(_moddi3.o)
                              E:/usr/local/sce/ee/lib\libkernl.a(kprintf.o) (__moddi3)

Allocating common symbols
Common symbol       size              file

errno               0x4               E:/usr/local/sce/ee/gcc/lib/gcc-lib/ee\2.95.2\../../../../ee\lib\libc.a(sbrkr.o)
__CTOR_LIST__       0x8               E:/usr/local/sce/ee/gcc/lib/gcc-lib/ee\2.95.2\libgcc.a(_ctors.o)
__DTOR_LIST__       0x8               E:/usr/local/sce/ee/gcc/lib/gcc-lib/ee\2.95.2\libgcc.a(_ctors.o)

Memory Configuration

Name             Origin             Length             Attributes
*default*        0x0000000000000000 0xffffffffffffffff

Linker script and memory map

LOAD crt0.o
LOAD obj/sky2/main.o
LOAD obj/sky2/events.o
LOAD obj/sky2/camera.o
LOAD obj/sky2/menu.o
LOAD obj/sky2/world.o
LOAD obj/sky2/skeleton.o
LOAD obj/sky2/sky.o
LOAD obj/sky2/skyfs.o
LOAD E:/nightly/rwsdk.sky/rwsdk/lib/sky2/librplogo.a
LOAD E:/nightly/rwsdk.sky/rwsdk/lib/sky2/librtimport.a
LOAD E:/nightly/rwsdk.sky/rwsdk/lib/sky2/librtcharse.a
LOAD E:/nightly/rwsdk.sky/rwsdk/lib/sky2/librtbmp.a
LOAD E:/nightly/rwsdk.sky/rwsdk/lib/sky2/librtpng.a
LOAD E:/nightly/rwsdk.sky/rwsdk/lib/sky2/librpworld.a
LOAD E:/nightly/rwsdk.sky/rwsdk/lib/sky2/librwcore.a
LOAD E:/usr/local/sce/ee/lib/libgraph.a
LOAD E:/usr/local/sce/ee/lib/libdma.a
LOAD E:/usr/local/sce/ee/lib/libpad.a
LOAD E:/usr/local/sce/ee/gcc/lib/gcc-lib/ee\2.95.2\../../../../ee\lib\libm.a
LOAD E:/usr/local/sce/ee/gcc/lib/gcc-lib/ee\2.95.2\libgcc.a
LOAD E:/usr/local/sce/ee/gcc/lib/gcc-lib/ee\2.95.2\libgcc.a
                0x0000000000100000                _stack_size=0x100000
                0xffffffffffffffff                _stack=0xffffffffffffffff
                0xffffffffffffffff                _heap_size=0xffffffffffffffff
START GROUP
LOAD E:/usr/local/sce/ee/gcc/lib/gcc-lib/ee\2.95.2\../../../../ee\lib\libc.a
LOAD E:/usr/local/sce/ee/lib\libkernl.a
LOAD E:/usr/local/sce/ee/gcc/lib/gcc-lib/ee\2.95.2\libgcc.a
END GROUP

.text           0x0000000000100000    0xbd0b0
 crt0.o(.text)
 .text          0x0000000000100000       0xc8 crt0.o
                0x0000000000100008                _start
                0x0000000000100008                ENTRYPOINT
                0x00000000001000b8                _exit
 *(.text)
 .text          0x00000000001000c8      0x58c obj/sky2/main.o
                0x0000000000100440                AppEventHandler
 *fill*         0x0000000000100654 0x303db800000004
 .text          0x0000000000100658       0x80 obj/sky2/events.o
                0x0000000000100658                AttachInputDevices
 .text          0x00000000001006d8      0x8e8 obj/sky2/camera.o
                0x00000000001009c0                CameraMove
                0x0000000000100c38                CameraRotate
                0x0000000000100db8                CameraCreate
                0x0000000000100b58                CameraPan
                0x0000000000100a78                CameraTilt
                0x0000000000100f18                CameraCreateCrossHair
                0x0000000000100d18                CameraDestroy
                0x00000000001006d8                CameraSize
 .text          0x0000000000100fc0     0x2d34 obj/sky2/menu.o
                0x0000000000103a48                MenuSelectEntry
                0x0000000000103bb8                MenuSetRangeReal
                0x0000000000102d78                MenuRender
                0x0000000000103288                MenuOpen
                0x0000000000103560                MenuAddEntryBoolTransient
                0x0000000000102378                MenuKeyboardShortcutHandler
                0x0000000000101268                MenuToggle
                0x00000000001024e0                MenuKeyboardHandler
                0x0000000000103a38                MenuGetStatus
                0x0000000000101a68                MenuRemoveEntry
                0x0000000000103998                MenuAddSeparator
                0x0000000000103c78                MenuSetStatus
                0x0000000000103630                MenuAddEntryInt
                0x0000000000103a90                MenuSetRangeInt
                0x0000000000103490                MenuAddEntryBool
                0x0000000000101de0                MenuMouseHandler
                0x00000000001020c0                MenuPadHandler
                0x00000000001030e0                MenuClose
                0x00000000001038e8                MenuAddEntryTrigger
                0x00000000001037c8                MenuAddEntryReal
 *fill*         0x0000000000103cf4 0x303db800000004
 .text          0x0000000000103cf8      0xac8 obj/sky2/world.o
                0x0000000000104758                CreateWorld
 .text          0x00000000001047c0     0x14a8 obj/sky2/skeleton.o
                0x0000000000105920                RsMouseSetVisibility
                0x0000000000105890                RsKeyFromScanCode
                0x0000000000105980                RsRwTerminate
                0x0000000000104df0                RsLoadPresetViews
                0x00000000001058e0                RsErrorMessage
                0x00000000001058c0                RsCameraShowRaster
                0x0000000000105690                RsPadEventHandler
                0x0000000000105a48                RsSetPresetView
                0x0000000000105658                RsMouseEventHandler
                0x0000000000104918                RsRwInitialize
                0x0000000000105788                RsSelectDevice
                0x0000000000105830                RsPathGetSeparator
                0x0000000000105c20                RsGrabScreen
                0x0000000000105940                RsMouseSetPos
                0x0000000000105ba0                RsDestroyPresetViews
                0x00000000001049f8                RsSetModelTexturePath
                0x0000000000105b58                RsGetPresetViewDescription
                0x0000000000105730                RsRegisterImageLoader
                0x0000000000105348                RsSavePresetView
                0x00000000001059e8                RsWarningMessage
                0x0000000000105960                RsPathnameDestroy
                0x0000000000104ba0                RsSetNextPresetView
                0x0000000000105870                RsTimer
                0x0000000000105810                RsAlwaysOnTop
                0x00000000001047c0                RsEventHandler
                0x0000000000104cc8                RsSetPreviousPresetView
                0x00000000001059c8                RsTerminate
                0x00000000001057a8                RsInputDeviceAttach
                0x0000000000105620                RsKeyboardEventHandler
                0x00000000001056c8                RsInitialize
                0x0000000000105850                RsPathnameCreate
                0x0000000000105a28                RsWindowSetText
 .text          0x0000000000105c68     0x16c4 obj/sky2/sky.o
                0x0000000000106eb8                psPathnameCreate
                0x0000000000106ff0                psGetMemoryFunctions
                0x0000000000106fb8                psAlwaysOnTop
                0x0000000000106d38                psTimer
                0x0000000000106d18                psDebugMessageHandler
                0x0000000000106fa8                psInitialize
                0x0000000000106fb0                psTerminate
                0x0000000000106d00                psWindowSetText
                0x0000000000106fe0                psMouseSetVisibility
                0x0000000000106fa0                psPathGetSeparator
                0x0000000000106da8                psGrabScreen
                0x0000000000106d10                psWarningMessage
                0x00000000001069c8                main
                0x0000000000105c68                psSelectDevice
                0x0000000000106fc0                psCameraShowRaster
                0x00000000001070d8                skyOverideIOPPath
                0x0000000000107058                psNativeTextureSupport
                0x0000000000106fe8                psMouseSetPos
                0x0000000000107060                psMicroTimer
                0x0000000000106d08                psErrorMessage
                0x0000000000107030                psInstallFileSystem
                0x0000000000106f78                psPathnameDestroy
 *fill*         0x000000000010732c 0x303db800000004
 .text          0x0000000000107330      0xca0 obj/sky2/skyfs.o
                0x0000000000107830                SkyInstallFileSystem
 .text          0x0000000000107fd0      0x998 E:/nightly/rwsdk.sky/rwsdk/lib/sky2/librplogo.a(rplogo.obj)
                0x00000000001086f0                RpLogoPluginAttach
                0x0000000000108760                RpLogoSetPosition
                0x00000000001088a8                RpLogoGetRenderingRect
                0x0000000000108870                RpLogoGetState
                0x00000000001087e8                RpLogoGetPosition
                0x0000000000108818                RpLogoSetState
 .text          0x0000000000108968     0x11e8 E:/nightly/rwsdk.sky/rwsdk/lib/sky2/librtimport.a(rtimport.obj)
                0x0000000000109938                RtWorldImportAddMaterial
                0x0000000000109990                RtWorldImportGetMaterialIndex
                0x0000000000108b40                RtWorldImportCreateGeometry
                0x0000000000109390                RtWorldImportCreate
                0x0000000000109658                RtWorldImportGetNumVertices
                0x0000000000109a60                RtWorldImportForAllMaterials
                0x00000000001093f8                RtWorldImportAddNumVertices
                0x0000000000109778                RtWorldImportSetSurfaceProperties
                0x00000000001090b0                RtWorldImportDestroy
                0x0000000000109510                RtWorldImportAddNumTriangles
                0x0000000000109628                RtWorldImportGetMaterial
                0x0000000000109730                RtWorldImportGetTriangles
                0x00000000001097e0                RtWorldImportGetSurfaceProperties
                0x0000000000109830                _rtImportWorldSendProgressMessage
                0x00000000001096a0                RtWorldImportGetVertices
                0x0000000000109828                RtWorldImportSetProgressCallBack
                0x0000000000109b28                RtWorldImportSetUserdataCallBacks
                0x00000000001096e8                RtWorldImportGetNumTriangles
                0x0000000000109328                RtWorldImportCreateWorld
                0x0000000000109258                RtWorldImportParametersInitialize
                0x0000000000109868                RtWorldImportWrite
                0x0000000000108968                RtWorldImportRead
 .text          0x0000000000109b50     0x3378 E:/nightly/rwsdk.sky/rwsdk/lib/sky2/librtimport.a(nhscond.obj)
                0x000000000010cd48                _rtImportSetWeldThresholdPositional
                0x000000000010c8e0                _rtImportBuildSectorConditionGeometry
                0x000000000010cd58                _rtImportSetWeldThresholdAngular
                0x000000000010cd40                _rtImportGetWeldThresholdPositional
                0x000000000010cd50                _rtImportGetWeldThresholdAngular
 .text          0x000000000010cec8     0x442c E:/nightly/rwsdk.sky/rwsdk/lib/sky2/librtimport.a(nhssplit.obj)
                0x0000000000110750                _rtImportBuildSectorCreateFromNoHSWorld
                0x0000000000110cc0                _rtImportWorldCreateWorld
 *fill*         0x00000000001112f4 0x303db800000004
 .text          0x00000000001112f8      0x320 E:/nightly/rwsdk.sky/rwsdk/lib/sky2/librtimport.a(nhsstats.obj)
                0x00000000001112f8                _rtImportBuildSectorGetClipStatistics
 .text          0x0000000000111618     0x1400 E:/nightly/rwsdk.sky/rwsdk/lib/sky2/librtimport.a(nhsutil.obj)
                0x0000000000112520                _rtImportBuildSectorCreate
                0x0000000000112940                _rtImportWorldSectorCheck
                0x0000000000112918                _rtImportPlaneSectorDestroy
                0x0000000000112840                _rtImportBuildSectorFindNumTriangles
                0x0000000000112890                _rtImportBuildPlaneSectorCreate
                0x00000000001129e0                _rtImportBuildSectorCheck
                0x0000000000111ef0                _rtImportPlaneSectorDestroyTree
                0x00000000001125a0                _rtImportBuildSectorDestroy
                0x0000000000111618                _rtImportBuildSectorTriangulize
                0x0000000000112090                _rtImportWorldSectorInitialize
                0x00000000001126e0                _rtImportBuildSectorFindBBox
 .text          0x0000000000112a18     0x1600 E:/nightly/rwsdk.sky/rwsdk/lib/sky2/librtimport.a(nhswing.obj)
                0x0000000000113c98                _rtImportWingPolyForAllVertices
                0x0000000000113820                _rtImportBuildSectorWeldPolygons
                0x0000000000113bd8                _rtImportWingPolyForAllEdges
 .text          0x0000000000114018      0xaec E:/nightly/rwsdk.sky/rwsdk/lib/sky2/librtimport.a(nhsworld.obj)
                0x0000000000114910                _rtImportWorldSectorCompressTree
 *fill*         0x0000000000114b04 0x303db800000004
 .text          0x0000000000114b08      0x73c E:/nightly/rwsdk.sky/rwsdk/lib/sky2/librtimport.a(nhsbary.obj)
                0x0000000000114b08                _rtImportBarycentricFromCartesianMatrix
 *fill*         0x0000000000115244 0x303db800000004
 .text          0x0000000000115248     0x106c E:/nightly/rwsdk.sky/rwsdk/lib/sky2/librtimport.a(nhssmplx.obj)
                0x0000000000116168                _rtImportWingPolyTriangulate
 *fill*         0x00000000001162b4 0x303db800000004
 .text          0x00000000001162b8      0x98c E:/nightly/rwsdk.sky/rwsdk/lib/sky2/librtcharse.a(chrprint.obj)
                0x0000000000116900                RtCharsetBufferFlush
                0x0000000000116a58                RtCharsetPrintBuffered
                0x0000000000116c28                RtCharsetPrint
 *fill*         0x0000000000116c44 0x303db800000004
 .text          0x0000000000116c48      0x75c E:/nightly/rwsdk.sky/rwsdk/lib/sky2/librtcharse.a(rtcharse.obj)
                0x0000000000117188                RtCharsetClose
                0x0000000000116e10                RtCharsetSetColors
                0x0000000000116fa0                RtCharsetCreate
                0x00000000001170f8                RtCharsetOpen
                0x00000000001172a8                RtCharsetDestroy
                0x0000000000117328                _rtCharsetAtariFontGet
                0x00000000001171e8                RtCharsetGetDesc
 *fill*         0x00000000001173a4 0x303db800000004
 .text          0x00000000001173a8     0x12b8 E:/nightly/rwsdk.sky/rwsdk/lib/sky2/librtbmp.a(rtbmp.obj)
                0x0000000000117fb0                RtBMPImageRead
                0x00000000001185f0                RtBMPImageWrite
 .text          0x0000000000118660      0xae8 E:/nightly/rwsdk.sky/rwsdk/lib/sky2/librtpng.a(rtpng.obj)
                0x0000000000118fd0                RwImageWritePNG
                0x0000000000118a30                RtPNGImageRead
                0x0000000000119028                RwImageReadPNG
                0x0000000000118660                RtPNGImageWrite
 .text          0x0000000000119148      0xac8 E:/nightly/rwsdk.sky/rwsdk/lib/sky2/librtpng.a(png.obj)
                0x0000000000119908                png_get_header_ver
                0x0000000000119a68                png_zfree
                0x00000000001199b8                png_zalloc
                0x0000000000119938                png_get_libpng_ver
                0x0000000000119670                png_sig_cmp
                0x0000000000119618                png_set_sig_bytes
                0x0000000000119950                png_info_destroy
                0x0000000000119890                png_get_io_ptr
                0x0000000000119b28                png_handle_as_unknown
                0x0000000000119610                png_access_version_number
                0x00000000001197d8                png_info_init_3
                0x00000000001198f8                png_get_copyright
                0x0000000000119920                png_get_header_version
                0x0000000000119740                png_reset_zstream
                0x0000000000119ac0                png_calculate_crc
                0x0000000000119c08                png_mmx_support
                0x00000000001196e0                png_check_sig
                0x0000000000119a88                png_reset_crc
                0x0000000000119760                png_create_info_struct
                0x00000000001197b0                png_info_init
                0x0000000000119828                png_destroy_info_struct
                0x0000000000119148                png_free_data
                0x0000000000119898                png_data_freer
 .text          0x0000000000119c10      0x468 E:/nightly/rwsdk.sky/rwsdk/lib/sky2/librtpng.a(pngerror.obj)
                0x0000000000119e08                png_error
                0x0000000000119fe0                png_warning
                0x0000000000119c10                png_chunk_warning
                0x0000000000119e00                png_get_error_ptr
                0x0000000000119e50                png_chunk_error
                0x0000000000119df0                png_set_error_fn
 .text          0x000000000011a078      0xcd0 E:/nightly/rwsdk.sky/rwsdk/lib/sky2/librtpng.a(pngget.obj)
                0x000000000011aaa8                png_get_sBIT
                0x000000000011a630                png_get_cHRM_fixed
                0x000000000011a4a8                png_get_bKGD
                0x000000000011a798                png_get_hIST
                0x000000000011a1a8                png_get_interlace_type
                0x000000000011a370                png_get_x_offset_pixels
                0x000000000011ab90                png_get_sPLT
                0x000000000011a0e8                png_get_rowbytes
                0x000000000011ab28                png_get_iCCP
                0x000000000011a090                png_get_rgb_to_gray_status
                0x000000000011a190                png_get_filter_type
                0x000000000011ac10                png_get_tIME
                0x000000000011a448                png_get_y_offset_microns
                0x000000000011a148                png_get_image_height
                0x000000000011a958                png_get_pCAL
                0x000000000011a130                png_get_image_width
                0x000000000011a230                png_get_x_pixels_per_meter
                0x000000000011aae8                png_get_sRGB
                0x000000000011a118                png_get_channels
                0x000000000011a6e8                png_get_gAMA
                0x000000000011a3b8                png_get_y_offset_pixels
                0x000000000011a078                png_get_compression_buffer_size
                0x000000000011a0c0                png_get_valid
                0x000000000011a1c0                png_get_compression_type
                0x000000000011a400                png_get_x_offset_microns
                0x000000000011a100                png_get_rows
                0x000000000011a8f8                png_get_oFFs
                0x000000000011a160                png_get_bit_depth
                0x000000000011a178                png_get_color_type
                0x000000000011aa60                png_get_PLTE
                0x000000000011a1d8                png_get_pixels_per_meter
                0x000000000011a7d8                png_get_IHDR
                0x000000000011a750                png_get_gAMA_fixed
                0x000000000011a490                png_get_signature
                0x000000000011abb8                png_get_text
                0x000000000011acd8                png_get_sCAL
                0x000000000011a4e8                png_get_cHRM
                0x000000000011ac50                png_get_tRNS
                0x000000000011a9f8                png_get_pHYs
                0x000000000011a278                png_get_y_pixels_per_meter
                0x000000000011ad20                png_get_unknown_chunks
                0x000000000011a2c0                png_get_pixel_aspect_ratio
                0x000000000011a0a8                png_get_user_chunk_ptr
 .text          0x000000000011ad48      0x348 E:/nightly/rwsdk.sky/rwsdk/lib/sky2/librtpng.a(pngmem.obj)
                0x000000000011af98                png_destroy_struct
                0x000000000011ad48                png_set_mem_fn
                0x000000000011ae80                png_free_default
                0x000000000011afb8                png_create_struct_2
                0x000000000011af10                png_memset_check
                0x000000000011ad60                png_malloc
                0x000000000011af78                png_create_struct
                0x000000000011b050                png_destroy_struct_2
                0x000000000011aea8                png_memcpy_check
                0x000000000011ade0                png_free
                0x000000000011ad58                png_get_mem_ptr
                0x000000000011ae28                png_malloc_default
 .text          0x000000000011b090     0x2088 E:/nightly/rwsdk.sky/rwsdk/lib/sky2/librtpng.a(pngread.obj)
                0x000000000011c558                png_read_destroy
                0x000000000011d060                png_set_read_status_fn
                0x000000000011d068                png_read_init
                0x000000000011cbf0                png_create_read_struct
                0x000000000011b350                png_read_init_3
                0x000000000011c8d0                png_read_png
                0x000000000011cc18                png_start_read_image
                0x000000000011d090                png_read_init_2
                0x000000000011b540                png_read_info
                0x000000000011cf50                png_destroy_read_struct
                0x000000000011cc48                png_read_update_info
                0x000000000011ce50                png_read_image
                0x000000000011baf8                png_read_row
                0x000000000011b090                png_create_read_struct_2
                0x000000000011ccb0                png_read_rows
                0x000000000011c088                png_read_end
 .text          0x000000000011d118       0x90 E:/nightly/rwsdk.sky/rwsdk/lib/sky2/librtpng.a(pngrio.obj)
                0x000000000011d118                png_set_read_fn
                0x000000000011d170                png_read_data
 .text          0x000000000011d1a8     0x6f54 E:/nightly/rwsdk.sky/rwsdk/lib/sky2/librtpng.a(pngrtran.obj)
                0x000000000011faa8                png_do_read_filler
                0x000000000011d1a8                png_set_dither
                0x00000000001239d0                png_set_gray_1_2_4_to_8
                0x0000000000124010                png_set_read_user_transform_fn
                0x0000000000123d00                png_set_strip_alpha
                0x0000000000123e10                png_set_strip_16
                0x0000000000122fc8                png_build_gamma_table
                0x000000000011f370                png_do_unshift
                0x0000000000122dc8                png_do_dither
                0x00000000001201f8                png_do_rgb_to_gray
                0x0000000000123a30                png_set_rgb_to_gray
                0x0000000000123a18                png_set_gray_to_rgb
                0x000000000011ff48                png_do_gray_to_rgb
                0x0000000000123b08                png_set_rgb_to_gray_fixed
                0x000000000011ed00                png_do_read_transformations
                0x0000000000123ef0                png_set_crc_action
                0x00000000001239e8                png_set_palette_to_rgb
                0x000000000011f708                png_do_read_swap_alpha
                0x0000000000121e50                png_do_gamma
                0x00000000001239b8                png_set_expand
                0x000000000011ea70                png_read_transform_info
                0x0000000000122818                png_do_expand
                0x000000000011dc20                png_init_read_transformations
                0x0000000000123a00                png_set_tRNS_to_alpha
                0x000000000011f918                png_do_read_invert_alpha
                0x0000000000123c38                png_build_grayscale_palette
                0x0000000000124028                png_do_chop
                0x0000000000123d18                png_set_background
                0x000000000011f150                png_do_unpack
                0x0000000000122450                png_do_expand_palette
                0x0000000000123e28                png_set_gamma
                0x0000000000120ac0                png_do_background
 *fill*         0x00000000001240fc 0x303db800000004
 .text          0x0000000000124100     0x6cc8 E:/nightly/rwsdk.sky/rwsdk/lib/sky2/librtpng.a(pngrutil.obj)
                0x0000000000125d30                png_handle_sRGB
                0x000000000012a200                png_read_finish_row
                0x0000000000124408                png_handle_IHDR
                0x000000000012ab20                png_crc_error
                0x000000000012a990                png_get_uint_16
                0x000000000012ad28                png_check_chunk_name
                0x0000000000129ec8                png_read_filter_row
                0x000000000012a5f0                png_read_start_row
                0x0000000000127ab8                png_handle_pHYs
                0x000000000012a960                png_get_uint_32
                0x000000000012abc8                png_handle_IEND
                0x00000000001276b0                png_handle_hIST
                0x0000000000124aa0                png_handle_gAMA
                0x0000000000128ba0                png_handle_tIME
                0x0000000000126c08                png_handle_tRNS
                0x0000000000124658                png_handle_PLTE
                0x0000000000127e58                png_handle_oFFs
                0x00000000001271c8                png_handle_bKGD
                0x0000000000128798                png_handle_sCAL
                0x0000000000126270                png_handle_iCCP
                0x0000000000129098                png_handle_zTXt
                0x00000000001281f8                png_handle_pCAL
                0x00000000001292c8                png_handle_unknown
                0x000000000012a9a8                png_crc_read
                0x0000000000124ed0                png_handle_sBIT
                0x0000000000129568                png_combine_row
                0x000000000012a9f8                png_crc_finish
                0x0000000000126768                png_handle_sPLT
                0x00000000001252a0                png_handle_cHRM
                0x0000000000124100                png_decompress_chunk
                0x0000000000129930                png_do_read_interlace
                0x000000000012a930                png_get_int_32
                0x0000000000128ed0                png_handle_tEXt
 .text          0x000000000012adc8     0x192c E:/nightly/rwsdk.sky/rwsdk/lib/sky2/librtpng.a(pngset.obj)
                0x000000000012c0d0                png_set_sBIT
                0x000000000012ba20                png_set_cHRM_fixed
                0x000000000012bbe0                png_set_gAMA
                0x000000000012c690                png_set_unknown_chunk_location
                0x000000000012b4e8                png_set_text
                0x000000000012bc90                png_set_gAMA_fixed
                0x000000000012b9e0                png_set_bKGD
                0x000000000012be08                png_set_oFFs
                0x000000000012aff0                png_set_IHDR
                0x000000000012c3a0                png_set_keep_unknown_chunks
                0x000000000012c298                png_set_tRNS
                0x000000000012be38                png_set_pCAL
                0x000000000012c530                png_set_unknown_chunks
                0x000000000012c020                png_set_PLTE
                0x000000000012c6d0                png_set_invalid
                0x000000000012b740                png_set_sPLT
                0x000000000012adc8                png_set_cHRM
                0x000000000012c370                png_set_sCAL
                0x000000000012c138                png_set_iCCP
                0x000000000012b940                png_permit_empty_plte
                0x000000000012b8d8                png_set_compression_buffer_size
                0x000000000012b960                png_set_read_user_chunk_fn
                0x000000000012bd20                png_set_hIST
                0x000000000012b280                png_set_sRGB_gAMA_and_cHRM
                0x000000000012bff0                png_set_pHYs
                0x000000000012c110                png_set_sRGB
                0x000000000012c250                png_set_tIME
                0x000000000012b970                png_set_rows
 *fill*         0x000000000012c6f4 0x303db800000004
 .text          0x000000000012c6f8      0x960 E:/nightly/rwsdk.sky/rwsdk/lib/sky2/librtpng.a(pngtrans.obj)
                0x000000000012c6f8                png_do_strip_filler
                0x000000000012ccb8                png_set_filler
                0x000000000012cde8                png_set_interlace_handling
                0x000000000012ce48                png_do_swap
                0x000000000012cd60                png_set_packing
                0x000000000012cc88                png_set_swap_alpha
                0x000000000012ce30                png_set_user_transform_info
                0x000000000012cc70                png_set_bgr
                0x000000000012cd38                png_set_swap
                0x000000000012ca80                png_do_bgr
                0x000000000012cd90                png_set_packswap
                0x000000000012ce18                png_set_invert_mono
                0x000000000012cf08                png_do_packswap
                0x000000000012cfd8                png_do_invert
                0x000000000012cca0                png_set_invert_alpha
                0x000000000012ce40                png_get_user_transform_ptr
                0x000000000012cdb8                png_set_shift
 .text          0x000000000012d058       0xb8 E:/nightly/rwsdk.sky/rwsdk/lib/sky2/librtpng.a(pngwio.obj)
                0x000000000012d058                png_set_write_fn
                0x000000000012d0e8                png_flush
                0x000000000012d0b0                png_write_data
 .text          0x000000000012d110     0x1c80 E:/nightly/rwsdk.sky/rwsdk/lib/sky2/librtpng.a(pngwrite.obj)
                0x000000000012eb10                png_set_write_status_fn
                0x000000000012e9d8                png_set_compression_level
                0x000000000012d940                png_create_write_struct_2
                0x000000000012ed08                png_write_init_2
                0x000000000012e9f0                png_set_compression_mem_level
                0x000000000012e7a8                png_write_rows
                0x000000000012ea20                png_set_compression_window_bits
                0x000000000012e698                png_set_flush
                0x000000000012e670                png_create_write_struct
                0x000000000012d110                png_write_info_before_PLTE
                0x000000000012dca0                png_write_row
                0x000000000012d398                png_write_info
                0x000000000012db50                png_write_init_3
                0x000000000012d740                png_write_end
                0x000000000012eb30                png_write_png
                0x000000000012e068                png_set_filter
                0x000000000012eb18                png_set_write_user_transform_fn
                0x000000000012df00                png_write_destroy
                0x000000000012e850                png_write_image
                0x000000000012eab8                png_set_compression_method
                0x000000000012e290                png_set_filter_heuristics
                0x000000000012e6b0                png_write_flush
                0x000000000012ea08                png_set_compression_strategy
                0x000000000012e900                png_destroy_write_struct
                0x000000000012ece0                png_write_init
 .text          0x000000000012ed90      0xb0c E:/nightly/rwsdk.sky/rwsdk/lib/sky2/librtpng.a(pngwtran.obj)
                0x000000000012ef00                png_do_pack
                0x000000000012f6a0                png_do_write_invert_alpha
                0x000000000012f100                png_do_shift
                0x000000000012ed90                png_do_write_transformations
                0x000000000012f4a0                png_do_write_swap_alpha
 *fill*         0x000000000012f89c 0x303db800000004
 .text          0x000000000012f8a0     0x4d58 E:/nightly/rwsdk.sky/rwsdk/lib/sky2/librtpng.a(pngwutil.obj)
                0x0000000000134080                png_write_gAMA_fixed
                0x00000000001301f0                png_write_iCCP
                0x00000000001314d8                png_check_keyword
                0x0000000000134108                png_write_sRGB
                0x000000000012fbd8                png_write_IHDR
                0x0000000000131788                png_write_tEXt
                0x0000000000133db0                png_write_chunk_end
                0x0000000000130918                png_write_cHRM
                0x0000000000133e50                png_save_int_32
                0x0000000000130ed8                png_write_cHRM_fixed
                0x00000000001321f0                png_write_start_row
                0x0000000000131960                png_write_zTXt
                0x0000000000130000                png_write_PLTE
                0x0000000000131228                png_write_bKGD
                0x00000000001307d8                png_write_sBIT
                0x00000000001344b8                png_write_filtered_row
                0x00000000001304f8                png_write_sPLT
                0x0000000000132a30                png_write_find_filter
                0x0000000000133f08                png_write_IDAT
                0x0000000000133e90                png_save_uint_16
                0x0000000000133e10                png_save_uint_32
                0x0000000000133d50                png_write_chunk_data
                0x0000000000133c48                png_write_chunk
                0x0000000000133ca8                png_write_chunk_start
                0x0000000000131360                png_write_hIST
                0x00000000001323d0                png_write_finish_row
                0x0000000000133f78                png_write_IEND
                0x0000000000131ca0                png_write_pCAL
                0x0000000000132038                png_write_sCAL_s
                0x00000000001342b8                png_write_oFFs
                0x0000000000133fd0                png_write_gAMA
                0x0000000000132698                png_do_write_interlace
                0x00000000001343b8                png_write_pHYs
                0x0000000000133ea0                png_write_sig
                0x0000000000134178                png_write_tRNS
 .text          0x00000000001345f8     0x2458 E:/nightly/rwsdk.sky/rwsdk/lib/sky2/librtpng.a(deflate.obj)
                0x0000000000134a18                deflate
                0x00000000001348b0                deflateSetDictionary
                0x0000000000136978                deflateInit_
                0x00000000001345f8                deflateInit2_
                0x00000000001367b8                deflateReset
                0x0000000000134f80                deflateCopy
                0x0000000000136868                deflateParams
                0x00000000001366d0                deflateEnd
 .text          0x0000000000136a50     0x24d0 E:/nightly/rwsdk.sky/rwsdk/lib/sky2/librtpng.a(trees.obj)
                0x0000000000137f68                _tr_flush_block
                0x0000000000138a30                _tr_stored_block
                0x00000000001389c0                _tr_init
                0x00000000001383b8                _tr_tally
                0x0000000000137c90                _tr_align
 .text          0x0000000000138f20       0x6c E:/nightly/rwsdk.sky/rwsdk/lib/sky2/librtpng.a(zutil.obj)
                0x0000000000138f20                zlibVersion
                0x0000000000138f70                zcfree
                0x0000000000138f30                zError
                0x0000000000138f50                zcalloc
 *fill*         0x0000000000138f8c 0x303db800000004
 .text          0x0000000000138f90      0xa40 E:/nightly/rwsdk.sky/rwsdk/lib/sky2/librtpng.a(inflate.obj)
                0x0000000000139160                inflate
                0x0000000000139990                inflateSyncPoint
                0x0000000000139968                inflateInit_
                0x0000000000139908                inflateReset
                0x0000000000139668                inflateSync
                0x0000000000139838                inflateSetDictionary
                0x00000000001397c8                inflateEnd
                0x0000000000138f90                inflateInit2_
 .text          0x00000000001399d0     0x1000 E:/nightly/rwsdk.sky/rwsdk/lib/sky2/librtpng.a(infblock.obj)
                0x000000000013a8a0                inflate_blocks_free
                0x0000000000139ad8                inflate_blocks
                0x000000000013a7f0                inflate_blocks_reset
                0x000000000013a9c0                inflate_blocks_sync_point
                0x000000000013a978                inflate_set_dictionary
                0x00000000001399d0                inflate_blocks_new
 .text          0x000000000013a9d0      0xb20 E:/nightly/rwsdk.sky/rwsdk/lib/sky2/librtpng.a(inftrees.obj)
                0x000000000013b4c0                inflate_trees_fixed
                0x000000000013b1d0                inflate_trees_bits
                0x000000000013b2d0                inflate_trees_dynamic
 .text          0x000000000013b4f0      0x928 E:/nightly/rwsdk.sky/rwsdk/lib/sky2/librtpng.a(infcodes.obj)
                0x000000000013bd80                inflate_codes_new
                0x000000000013b4f0                inflate_codes
                0x000000000013bdf0                inflate_codes_free
 .text          0x000000000013be18      0x180 E:/nightly/rwsdk.sky/rwsdk/lib/sky2/librtpng.a(infutil.obj)
                0x000000000013be18                inflate_flush
 .text          0x000000000013bf98      0x5b8 E:/nightly/rwsdk.sky/rwsdk/lib/sky2/librtpng.a(inffast.obj)
                0x000000000013bf98                inflate_fast
 .text          0x000000000013c550      0x20c E:/nightly/rwsdk.sky/rwsdk/lib/sky2/librtpng.a(crc32.obj)
                0x000000000013c550                crc32
                0x000000000013c750                get_crc_table
 *fill*         0x000000000013c75c 0x303db800000004
 .text          0x000000000013c760      0x1e4 E:/nightly/rwsdk.sky/rwsdk/lib/sky2/librtpng.a(adler32.obj)
                0x000000000013c760                adler32
 *fill*         0x000000000013c944 0x303db800000004
 .text          0x000000000013c948     0x1ed8 E:/nightly/rwsdk.sky/rwsdk/lib/sky2/librpworld.a(bageomet.obj)
                0x000000000013e568                RpGeometryTransform
                0x000000000013dfd0                RpGeometryCreateSpace
                0x000000000013e080                RpGeometryGetMorphTarget
                0x000000000013e748                RpGeometryRegisterPlugin
                0x000000000013cd20                RpGeometryRemoveMorphTarget
                0x000000000013e688                RpGeometryChunkInfoRead
                0x000000000013e1d8                RpGeometryForAllMaterials
                0x000000000013e0c8                _rpGeometryGetSurfaceProperties
                0x000000000013e1b0                RpGeometryGetVertexTexCoords
                0x000000000013df90                _rpGeometryClose
                0x000000000013e790                RpGeometryRegisterPluginStream
                0x000000000013e508                RpGeometryTriangleGetVertexIndices
                0x000000000013e1d0                RpMorphTargetGetVertexNormals
                0x000000000013e060                RpGeometryAddMorphTarget
                0x000000000013cf60                RpGeometryCreate
                0x000000000013e3f0                RpGeometryForAllMeshes
                0x000000000013e2b8                RpGeometryGetMaterial
                0x000000000013d5e0                RpGeometryStreamGetSize
                0x000000000013e268                RpGeometryLock
                0x000000000013e2d0                RpGeometryUnlock
                0x000000000013e1a0                RpGeometryGetTriangles
                0x000000000013e450                RpGeometryTriangleSetMaterial
                0x000000000013e048                _rpGeometryAddRef
                0x000000000013c948                RpMorphTargetCalcBoundingSphere
                0x000000000013e818                RpGeometryValidatePlugins
                0x000000000013cab0                RpGeometryAddMorphTargets
                0x000000000013e0f0                _rpGeometrySetSurfaceProperties
                0x000000000013d190                _rpGeometryInstance
                0x000000000013dfc0                _rpGeometryGetTKListFirstRegEntry
                0x000000000013e0c0                RpMorphTargetGetBoundingSphere
                0x000000000013da70                RpGeometryStreamRead
                0x000000000013e540                RpGeometryTriangleGetMaterial
                0x000000000013e098                RpMorphTargetSetBoundingSphere
                0x000000000013e7c8                RpGeometrySetStreamAlwaysCallBack
                0x000000000013e7f0                RpGeometryGetPluginOffset
                0x000000000013e1c8                RpMorphTargetGetVertices
                0x000000000013e438                RpGeometryTriangleSetVertexIndices
                0x000000000013d4a0                RpGeometryDestroy
                0x000000000013d6c8                RpGeometryStreamWrite
                0x000000000013e1a8                RpGeometryGetPreLightColors
                0x000000000013dfa8                _rpGeometryOpen
 .text          0x000000000013e820      0xb28 E:/nightly/rwsdk.sky/rwsdk/lib/sky2/librpworld.a(balight.obj)
                0x000000000013f050                RpLightSetRadius
                0x000000000013ead8                RpLightStreamWrite
                0x000000000013f2f0                RpLightGetPluginOffset
                0x000000000013f0a0                RpLightSetColor
                0x000000000013e820                RpLightGetConeAngle
                0x000000000013f130                RpLightStreamGetSize
                0x000000000013f290                RpLightRegisterPluginStream
                0x000000000013ec20                RpLightStreamRead
                0x000000000013f030                RpLightSetFlags
                0x000000000013f248                RpLightRegisterPlugin
                0x000000000013f098                RpLightGetColor
                0x000000000013f100                RpLightSetConeAngle
                0x000000000013eff8                RpLightSetFrame
                0x000000000013f028                RpLightGetType
                0x000000000013ef98                RpLightDestroy
                0x000000000013ee40                _rpLightClose
                0x000000000013f040                RpLightGetFlags
                0x000000000013f158                RpLightChunkInfoRead
                0x000000000013eeb8                RpLightCreate
                0x000000000013f020                RpLightGetFrame
                0x000000000013f2c8                RpLightSetStreamAlwaysCallBack
                0x000000000013f048                RpLightGetRadius
                0x000000000013edd8                _rpLightOpen
                0x000000000013f318                RpLightValidatePlugins
 .text          0x000000000013f348      0xcfc E:/nightly/rwsdk.sky/rwsdk/lib/sky2/librpworld.a(bamateri.obj)
                0x000000000013fcd0                RpMaterialDestroy
                0x000000000013fc20                RpMaterialCreate
                0x000000000013f348                RpMaterialClone
                0x000000000013fd78                RpMaterialSetTexture
                0x000000000013fe70                RpMaterialRegisterPluginStream
                0x000000000013ff00                RpMaterialStreamGetSize
                0x000000000013fde0                RpMaterialSetColor
                0x000000000013fd60                RpMaterialAddRef
                0x000000000013fef8                RpMaterialValidatePlugins
                0x000000000013f9c0                RpMaterialStreamWrite
                0x000000000013fe00                RpMaterialSetSurfaceProperties
                0x000000000013fdd8                RpMaterialGetTexture
                0x000000000013fb08                _rpMaterialClose
                0x000000000013fe28                RpMaterialRegisterPlugin
                0x000000000013fed0                RpMaterialGetPluginOffset
                0x000000000013f608                RpMaterialStreamRead
                0x000000000013fdf8                RpMaterialGetColor
                0x000000000013ff58                RpMaterialChunkInfoRead
                0x000000000013fe20                RpMaterialGetSurfaceProperties
                0x000000000013fea8                RpMaterialSetStreamAlwaysCallBack
                0x000000000013fbd8                _rpMaterialSetDefaultSurfaceProperties
                0x000000000013fb70                _rpMaterialOpen
 *fill*         0x0000000000140044 0x303db800000004
 .text          0x0000000000140048      0xc40 E:/nightly/rwsdk.sky/rwsdk/lib/sky2/librpworld.a(bamatlst.obj)
                0x0000000000140b80                _rpMaterialListFindMaterialIndex
                0x0000000000140048                _rpMaterialListCopy
                0x00000000001409c0                _rpMaterialListDeinitialize
                0x0000000000140298                _rpMaterialListStreamWrite
                0x0000000000140ac8                _rpMaterialListSetSize
                0x00000000001409a8                _rpMaterialListInitialize
                0x0000000000140bc0                _rpMaterialListStreamGetSize
                0x0000000000140a88                _rpMaterialListAlloc
                0x00000000001404d0                _rpMaterialListStreamRead
                0x0000000000140190                _rpMaterialListAppendMaterial
                0x0000000000140ab0                _rpMaterialListGetMaterial
 .text          0x0000000000140c88      0x904 E:/nightly/rwsdk.sky/rwsdk/lib/sky2/librpworld.a(bamesh.obj)
                0x0000000000141278                RpMeshHeaderGetPrimType
                0x0000000000141298                RpMeshHeaderSetPrimType
                0x0000000000141568                _rpMeshHeaderCreate
                0x0000000000140d60                _rpMeshRead
                0x0000000000140f88                _rpMeshGetNextSerialNumber
                0x0000000000141108                _rpMeshDestroy
                0x00000000001412d8                _rpMeshHeaderForAllMeshes
                0x00000000001410a8                _rpBuildMeshDestroy
                0x0000000000141368                _rpMeshWrite
                0x0000000000141540                _rpMeshHeaderDestroy
                0x0000000000140f38                _rpMeshClose
                0x0000000000141520                _rpMeshSize
                0x0000000000140c88                _rpMeshOpen
                0x0000000000141160                _rpBuildMeshAddTriangle
                0x0000000000140fb0                _rpBuildMeshCreate
 *fill*         0x000000000014158c 0x303db800000004
 .text          0x0000000000141590     0x38c4 E:/nightly/rwsdk.sky/rwsdk/lib/sky2/librpworld.a(bameshop.obj)
                0x0000000000144cf8                RpBuildMeshGenerateDefaultIgnoreWindingTriStrip
                0x0000000000144d90                RpMeshGetTriStripMethod
                0x0000000000144db8                _rpMeshOptimise
                0x0000000000144b90                RpBuildMeshGenerateTrivialTriStrip
                0x0000000000144cd8                RpBuildMeshGenerateExhaustiveTriStrip
                0x0000000000144d38                RpBuildMeshGenerateExhaustiveIgnoreWindingTriStrip
                0x0000000000144c98                RpBuildMeshGenerateDefaultTriStrip
                0x0000000000144d58                RpMeshSetTriStripMethod
                0x0000000000144848                _rpTriListMeshGenerate
                0x0000000000144cb8                RpBuildMeshGeneratePreprocessTriStrip
                0x0000000000144d18                RpBuildMeshGeneratePreprocessIgnoreWindingTriStrip
 *fill*         0x0000000000144e54 0x303db800000004
 .text          0x0000000000144e58      0x2f0 E:/nightly/rwsdk.sky/rwsdk/lib/sky2/librpworld.a(basector.obj)
                0x0000000000145118                RpWorldSectorGetPluginOffset
                0x0000000000145020                RpWorldSectorForAllMeshes
                0x0000000000145068                RpWorldSectorGetBBox
                0x0000000000144ff0                RpWorldSectorGetNumVertices
                0x0000000000144fb8                _rpSectorOpen
                0x0000000000145070                RpWorldSectorRegisterPlugin
                0x0000000000145140                RpWorldSectorValidatePlugins
                0x00000000001450b8                RpWorldSectorRegisterPluginStream
                0x0000000000144e58                _rpWorldSectorInstancePolygon
                0x0000000000144ff8                RpWorldSectorRender
                0x0000000000144fd0                _rpSectorClose
                0x00000000001450f0                RpWorldSectorSetStreamAlwaysCallBack
                0x0000000000144fe8                RpWorldSectorGetNumPolygons
 .text          0x0000000000145148     0x1770 E:/nightly/rwsdk.sky/rwsdk/lib/sky2/librpworld.a(baworld.obj)
                0x0000000000145de0                _rpWorldForAllGlobalLights
                0x0000000000146520                RpWorldSetFlags
                0x0000000000146588                RpWorldRegisterPlugin
                0x0000000000146608                RpWorldSetStreamAlwaysCallBack
                0x0000000000145f48                RpWorldLock
                0x00000000001465d0                RpWorldRegisterPluginStream
                0x0000000000146070                _rpWorldUnregisterWorld
                0x0000000000145620                RpWorldDestroy
                0x0000000000146448                RpWorldGetSectorRenderCallBack
                0x00000000001463e0                RpWorldGetNumMaterials
                0x0000000000145e60                _rpWorldSectorForAllLocalLights
                0x0000000000146450                RpWorldSectorGetWorld
                0x00000000001463f8                RpWorldGetOrigin
                0x0000000000146210                RpWorldForAllLights
                0x00000000001462d0                RpWorldForAllWorldSectors
                0x0000000000146180                RpWorldForAllMaterials
                0x0000000000145d58                _rpCollSectorFindSize
                0x00000000001454a0                RpWorldUnlock
                0x0000000000145c98                _rpWorldFindBBox
                0x0000000000146658                RpWorldValidatePlugins
                0x00000000001463b0                RpWorldSetRenderOrder
                0x0000000000145fe8                _rpWorldRegisterWorld
                0x00000000001463c0                RpWorldGetRenderOrder
                0x0000000000146530                RpWorldGetFlags
                0x0000000000146370                RpWorldRender
                0x0000000000146630                RpWorldGetPluginOffset
                0x00000000001460f8                RpWorldForAllClumps
                0x0000000000146538                RpWorldWorldSectorInstancePolygon
                0x0000000000145b58                RpWorldPluginAttach
                0x0000000000146428                RpWorldSetSectorRenderCallBack
                0x00000000001463e8                RpWorldGetNumClumps
                0x0000000000145870                RpWorldCreate
                0x00000000001463f0                RpWorldGetBBox
                0x0000000000146400                _rpWorldSetSurfaceProperties
                0x00000000001463c8                RpWorldGetMaterial
                0x0000000000146420                _rpWorldGetSurfaceProperties
                0x0000000000145ee0                _rpSectorDefaultRenderCallBack
 .text          0x00000000001468b8     0x20d0 E:/nightly/rwsdk.sky/rwsdk/lib/sky2/librpworld.a(baworobj.obj)
                0x0000000000147b40                RpWorldRemoveLight
                0x0000000000147a88                RpClumpGetWorld
                0x00000000001472d8                RpWorldSectorForAllAtomics
                0x0000000000147eb8                RpWorldSectorForAllCollisionAtomics
                0x00000000001477b0                RwCameraGetWorld
                0x00000000001479d0                RpWorldRemoveClump
                0x0000000000147530                RwCameraForAllClumpsInFrustum
                0x00000000001478f0                RpAtomicGetWorld
                0x00000000001478a8                RpWorldAddAtomic
                0x0000000000147760                RpWorldAddCamera
                0x0000000000147c18                RpLightGetWorld
                0x0000000000147c28                RwCameraForAllClumpsNotInFrustum
                0x0000000000147e40                RpAtomicForAllWorldSectors
                0x0000000000147d08                RwCameraForAllSectorsInFrustum
                0x00000000001476f0                RpWorldRemoveCamera
                0x0000000000147118                _rpWorldObjRegisterExtensions
                0x0000000000147f78                _rpTieDestroy
                0x0000000000147d88                RpLightForAllWorldSectors
                0x0000000000148000                _rpLightTieDestroy
                0x0000000000147900                RpWorldAddClump
                0x00000000001473f8                RpWorldSectorForAllLights
                0x0000000000147a98                RpWorldAddLight
                0x00000000001477c0                RpWorldRemoveAtomic
 .text          0x0000000000148988     0x1230 E:/nightly/rwsdk.sky/rwsdk/lib/sky2/librpworld.a(bapipew.obj)
                0x0000000000149a08                RpAtomicGetInstancePipeline
                0x0000000000149aa8                RpMaterialGetDefaultRenderPipeline
                0x00000000001498b0                RpWorldSectorSetInstancePipeline
                0x0000000000149b18                RpMaterialGetRenderPipeline
                0x00000000001497a0                _rpWorldPipeAttach
                0x0000000000149a70                RpMaterialSetDefaultRenderPipeline
                0x0000000000149968                RpAtomicGetDefaultInstancePipeline
                0x0000000000149980                RpAtomicSetDefaultInstancePipeline
                0x0000000000149ac0                RpMaterialSetRenderPipeline
                0x0000000000149a58                RpMaterialGetGenericRenderPipeline
                0x00000000001494f0                _rpWorldPipelineOpen
                0x00000000001499b8                RpAtomicSetInstancePipeline
                0x0000000000148988                RpGeometryIsCorrectlySorted
                0x00000000001497c0                RpWorldSetDefaultSectorInstancePipeline
                0x0000000000149810                RpWorldSetSectorInstancePipeline
                0x0000000000149860                RpWorldGetSectorInstancePipeline
                0x00000000001497f8                RpWorldGetDefaultSectorInstancePipeline
                0x0000000000148b58                RpGeometrySortByMaterial
                0x0000000000149950                RpAtomicGetGenericInstancePipeline
                0x0000000000149430                _rpWorldPipelineClose
                0x0000000000149900                RpWorldSectorGetInstancePipeline
                0x00000000001497a8                RpWorldGetGenericSectorInstancePipeline
 .text          0x0000000000149bb8      0x290 E:/nightly/rwsdk.sky/rwsdk/lib/sky2/librpworld.a(nodeAtomicEnumerateLights.obj)
                0x0000000000149d20                RxNodeDefinitionGetAtomicEnumerateLights
 .text          0x0000000000149e48     0x11c4 E:/nightly/rwsdk.sky/rwsdk/lib/sky2/librpworld.a(nodeAtomicInstance.obj)
                0x000000000014b000                RxNodeDefinitionGetAtomicInstance
 *fill*         0x000000000014b00c 0x303db800000004
 .text          0x000000000014b010     0x19cc E:/nightly/rwsdk.sky/rwsdk/lib/sky2/librpworld.a(nodeLight.obj)
                0x000000000014c9d0                RxNodeDefinitionGetLight
 *fill*         0x000000000014c9dc 0x303db800000004
 .text          0x000000000014c9e0      0x184 E:/nightly/rwsdk.sky/rwsdk/lib/sky2/librpworld.a(nodeMaterialScatter.obj)
                0x000000000014cb58                RxNodeDefinitionGetMaterialScatter
 *fill*         0x000000000014cb64 0x303db800000004
 .text          0x000000000014cb68      0x57c E:/nightly/rwsdk.sky/rwsdk/lib/sky2/librpworld.a(nodePostLight.obj)
                0x000000000014d0d8                RxNodeDefinitionGetPostLight
 *fill*         0x000000000014d0e4 0x303db800000004
 .text          0x000000000014d0e8      0x32c E:/nightly/rwsdk.sky/rwsdk/lib/sky2/librpworld.a(nodePreLight.obj)
                0x000000000014d408                RxNodeDefinitionGetPreLight
 *fill*         0x000000000014d414 0x303db800000004
 .text          0x000000000014d418      0x1b4 E:/nightly/rwsdk.sky/rwsdk/lib/sky2/librpworld.a(nodeWorldSectorEnumerateLights.obj)
                0x000000000014d548                RxNodeDefinitionGetWorldSectorEnumerateLights
 *fill*         0x000000000014d5cc 0x303db800000004
 .text          0x000000000014d5d0     0x1054 E:/nightly/rwsdk.sky/rwsdk/lib/sky2/librpworld.a(nodeWorldSectorInstance.obj)
                0x000000000014e618                RxNodeDefinitionGetWorldSectorInstance
 *fill*         0x000000000014e624 0x303db800000004
 .text          0x000000000014e628     0x1534 E:/nightly/rwsdk.sky/rwsdk/lib/sky2/librpworld.a(wrldpipe.obj)
                0x000000000014f858                RpWorldSectorSkyGetPS2AllPipeline
                0x000000000014f870                RpWorldSectorSkyGetPS2ManagerPipeline
                0x000000000014f498                _rpDestroyPlatformAtomicPipelines
                0x000000000014f7a8                RpMaterialSkyGetPS2AllMatPipeline
                0x000000000014f568                _rpCreatePlatformAtomicPipelines
                0x000000000014f810                RpAtomicSkyGetPS2ManagerPipeline
                0x000000000014e628                _rxWorldDevicePluginAttach
                0x000000000014f840                RpAtomicSkyGetVanillaPipeline
                0x000000000014f080                _rpCreatePlatformMaterialPipelines
                0x000000000014f828                RpAtomicSkyGetAllInOnePipeline
                0x000000000014f888                RpWorldSectorSkyGetAllInOnePipeline
                0x000000000014f1a0                _rpDestroyPlatformWorldSectorPipelines
                0x000000000014f7d8                RpMaterialSkySetDefaultPS2AllMatPipeline
                0x000000000014f7f8                RpAtomicSkyGetPS2AllPipeline
                0x000000000014f8a0                RpWorldSectorSkyGetVanillaPipeline
                0x000000000014f270                _rpCreatePlatformWorldSectorPipelines
                0x000000000014f8b8                _rpDestroyPlatformMaterialPipelines
                0x000000000014f7c0                RpMaterialSkyGetDefaultPS2AllMatPipeline
 *fill*         0x000000000014fb5c 0x303db800000004
 .text          0x000000000014fb60      0x7ac E:/nightly/rwsdk.sky/rwsdk/lib/sky2/librpworld.a(fastim3d.obj)
                0x0000000000150230                RwIm3DSkyGetPS2ManagerRenderPipeline
                0x0000000000150258                RwIm3DSkyGetPS2ManagerTransformPipeline
                0x0000000000150298                RwIm3DSkyGetPS2AllMatPipeline
                0x0000000000150160                _rwfastIm3DPipesClose
                0x0000000000150270                RwIm3DSkyGetPS2AllRenderPipeline
                0x000000000014fed0                _rwfastIm3DPipesOpen
 *fill*         0x000000000015030c 0x303db800000004
 .text          0x0000000000150310      0x564 E:/nightly/rwsdk.sky/rwsdk/lib/sky2/librpworld.a(native.obj)
                0x0000000000150310                _rpGeometryNativeWrite
                0x0000000000150810                _rpGeometryNativeSize
                0x0000000000150590                _rpGeometryNativeRead
 *fill*         0x0000000000150874 0x303db800000004
 .text          0x0000000000150878      0x734 E:/nightly/rwsdk.sky/rwsdk/lib/sky2/librpworld.a(nodeps2all.obj)
                0x0000000000150ed0                RxPipelineNodePS2AllSetCallBack
                0x0000000000150f28                RxPipelineNodePS2AllGroupMeshes
                0x0000000000150ec0                RxNodeDefinitionGetPS2All
 *fill*         0x0000000000150fac 0x303db800000004
 .text          0x0000000000150fb0      0xae8 E:/nightly/rwsdk.sky/rwsdk/lib/sky2/librpworld.a(ps2allmat.obj)
                0x0000000000151910                RxPipelineNodePS2AllMatGetVU1CodeArray
                0x0000000000151640                RxPipelineNodePS2AllMatSetVUBufferSizes
                0x0000000000151770                RxPipelineNodePS2AllMatSetPointListVUBufferSize
                0x0000000000151418                RxPipelineNodePS2AllMatGenerateCluster
                0x0000000000151630                RxNodeDefinitionGetPS2AllMat
                0x0000000000151870                RxPipelineNodePS2AllMatGetVUBatchSize
                0x00000000001518c0                RxPipelineNodePS2AllMatSetVU1CodeArray
                0x0000000000151890                RxPipelineNodePS2AllMatSetVIFOffset
                0x0000000000151958                RxPipelineNodePS2AllMatSetCallBack
 .text          0x0000000000151a98      0x478 E:/nightly/rwsdk.sky/rwsdk/lib/sky2/librpworld.a(objallinone.obj)
                0x0000000000151a98                PS2AllSkyWorldApplyLight
 .text          0x0000000000151f10     0x1a30 E:/nightly/rwsdk.sky/rwsdk/lib/sky2/librpworld.a(matinstance.obj)
                0x00000000001538c8                RpMeshPS2AllTestMeshIDFunc
                0x0000000000151f10                _rwPS2AllRabinsConstructionTimeCode
                0x0000000000152a10                DMADataSizeRecalc
                0x00000000001530a0                DMADataFillTags
                0x0000000000153860                RpMeshPS2AllTestNumVertsFunc
                0x0000000000153900                reDestroyCallBack
 .text          0x0000000000153940     0x1268 E:/nightly/rwsdk.sky/rwsdk/lib/sky2/librpworld.a(ps2allim3d.obj)
                0x0000000000154a70                RwIm3DPS2AllPostMeshCallBack
                0x0000000000154aa0                RwIm3DPS2AllObjInstanceTestFunc
                0x0000000000154b18                RwIm3DPS2AllResEntryAllocFunc
                0x0000000000153940                RwIm3DPS2AllGetMeshHeaderMeshCacheFunc
                0x0000000000154a50                RwIm3DPS2AllInstanceCallBack
                0x00000000001544f8                RwIm3DPS2AllInstance
                0x0000000000154b90                RwIm3DPS2AllGatherMeshMetricsFunc
                0x0000000000153bd8                RwIm3DPS2AllBridgeCallBack
                0x0000000000153a80                RwIm3DPS2AllObjectSetupCallBack
                0x0000000000154318                RwIm3DPS2AllIm3DPostMeshCallBack
                0x0000000000154af0                RwIm3DPS2AllFrustumTestFunc
                0x0000000000153ff8                RwIm3DPS2AllIm3DPreMeshCallBack
                0x0000000000154b98                RwIm3DPS2AllMeshEndFunc
                0x0000000000154a98                RwIm3DPS2AllGatherObjMetricsFunc
                0x00000000001549d8                RwIm3DPS2AllResEntryAllocCallBack
                0x0000000000154a88                RwIm3DPS2AllMeshSplitCallBack
                0x0000000000154ab0                RwIm3DPS2AllTransformSetupFunc
 .text          0x0000000000154ba8     0x20b8 E:/nightly/rwsdk.sky/rwsdk/lib/sky2/librpworld.a(ps2allatomic.obj)
                0x0000000000154cc0                RpAtomicPS2AllLightingSetupFunc
                0x0000000000156bc8                RpAtomicPS2AllFinalizeFunc
                0x0000000000156c58                RpMeshPS2AllGatherMeshMetricsFunc
                0x0000000000156808                RpAtomicPS2AllObjectFinalizeCallBack
                0x0000000000156830                RpAtomicPS2AllDoApplyLight
                0x00000000001568e8                RpAtomicPS2AllGetMeshHeaderMeshCacheFunc
                0x0000000000156998                RpAtomicPS2AllTransformSetupFunc
                0x0000000000156960                RpAtomicPS2AllMorphSetupFunc
                0x00000000001557b8                RpAtomicPS2AllInstance
                0x0000000000156738                RpMeshPS2AllResEntryAllocCallBack
                0x0000000000156800                RpMeshPS2AllPostMeshCallBack
                0x0000000000156878                RpAtomicPS2AllDoApplyLightFrame
                0x0000000000156698                RpMeshPS2AllMeshInstanceTestCallBack
                0x0000000000154ba8                RpAtomicPS2AllObjInstanceTestFunc
                0x00000000001569d8                RpAtomicPS2AllFrustumTestFunc
                0x0000000000156bb0                RpAtomicPS2AllMatModulateSetupFunc
                0x00000000001567b8                RpMeshPS2AllInstanceCallBack
                0x0000000000156958                RpAtomicPS2AllGatherObjMetricsFunc
                0x0000000000156ac8                RpAtomicPS2AllPrimTypeTransTypeSetupFunc
                0x00000000001550b8                RpMeshPS2AllBridgeCallBack
                0x0000000000154dd8                RpAtomicPS2AllObjectSetupCallBack
                0x0000000000156be8                RpAtomicPS2AllResEntryAllocFunc
 .text          0x0000000000156c60      0xec4 E:/nightly/rwsdk.sky/rwsdk/lib/sky2/librpworld.a(ps2allsector.obj)
                0x0000000000157958                RpWorldSectorPS2AllTransformSetupFunc
                0x0000000000157a48                RpWorldSectorPS2AllMatModulateSetupFunc
                0x00000000001578d8                RpWorldSectorPS2AllObjInstanceTestFunc
                0x0000000000157a80                RpWorldSectorPS2AllLightingSetupFunc
                0x0000000000157890                RpWorldSectorPS2AllGetMeshHeaderMeshCacheFunc
                0x0000000000157840                RpWorldSectorPS2AllDoApplyLight
                0x00000000001578d0                RpWorldSectorPS2AllGatherObjMetricsFunc
                0x0000000000157970                RpWorldSectorPS2AllFrustumTestFunc
                0x0000000000157af0                RpWorldSectorPS2AllResEntryAllocFunc
                0x0000000000156c60                RpWorldSectorPS2AllObjectSetupCallBack
                0x0000000000156f58                RpWorldSectorPS2AllInstance
 *fill*         0x0000000000157b24 0x303db800000004
 .text          0x0000000000157b28     0x1b30 E:/nightly/rwsdk.sky/rwsdk/lib/sky2/librpworld.a(babinwor.obj)
                0x00000000001593f0                RpWorldSectorChunkInfoRead
                0x0000000000158b90                RpWorldStreamWrite
                0x00000000001593c0                _rpBinaryWorldOpen
                0x00000000001593d8                _rpBinaryWorldClose
                0x0000000000158e40                RpWorldStreamRead
                0x0000000000158a80                RpWorldStreamGetSize
                0x0000000000159590                RpWorldChunkInfoRead
                0x00000000001594b8                RpPlaneSectorChunkInfoRead
 .text          0x0000000000159658     0x2ab4 E:/nightly/rwsdk.sky/rwsdk/lib/sky2/librpworld.a(baclump.obj)
                0x000000000015bd90                RpAtomicRegisterPlugin
                0x000000000015b728                RpClumpCreate
                0x000000000015a198                RpAtomicCreate
                0x000000000015b300                _rpClumpClose
                0x000000000015b618                RpClumpRemoveAtomic
                0x000000000015bdd8                RpClumpRegisterPlugin
                0x000000000015a060                RpAtomicGetWorldBoundingSphere
                0x000000000015be80                RpClumpRegisterPluginStream
                0x000000000015bbf8                RpAtomicStreamGetSize
                0x000000000015a2a8                RpClumpStreamGetSize
                0x000000000015bac8                RpAtomicSetGeometry
                0x000000000015bbb0                RpClumpGetCallBack
                0x000000000015b3f8                RpClumpForAllAtomics
                0x000000000015bb90                RpClumpSetCallBack
                0x000000000015b598                RpClumpRender
                0x000000000015b7c0                RpClumpClone
                0x000000000015bbc8                RpClumpGetNumAtomics
                0x000000000015be58                RpAtomicSetStreamAlwaysCallBack
                0x000000000015bee0                RpAtomicGetPluginOffset
                0x000000000015b470                RpAtomicSetFrame
                0x000000000015b960                RpAtomicClone
                0x000000000015beb8                RpClumpSetStreamAlwaysCallBack
                0x000000000015b3a8                AtomicDefaultRenderCallBack
                0x000000000015bf38                RpClumpValidatePlugins
                0x000000000015b670                RpClumpDestroy
                0x000000000015bf08                RpClumpGetPluginOffset
                0x000000000015b640                RpClumpAddAtomic
                0x000000000015a578                RpClumpStreamWrite
                0x000000000015b4a8                RpClumpCreateSpace
                0x000000000015bf30                RpAtomicValidatePlugins
                0x0000000000159ef0                _rpAtomicResyncInterpolatedSphere
                0x000000000015be20                RpAtomicRegisterPluginStream
                0x000000000015bcb0                RpAtomicStreamWrite
                0x000000000015bce0                RpClumpChunkInfoRead
                0x000000000015a8e8                RpClumpStreamRead
                0x000000000015bc48                RpAtomicStreamRead
                0x000000000015b258                _rpClumpOpen
                0x000000000015b8b0                RpAtomicDestroy
 *fill*         0x000000000015c10c 0x303db800000004
 .text          0x000000000015c110      0x1e0 E:/nightly/rwsdk.sky/rwsdk/lib/sky2/librpworld.a(matputil.obj)
                0x000000000015c1d0                rpObjectGetMeshCache
                0x000000000015c110                rpObjectDestroyMeshCache
 .text          0x000000000015c2f0     0x1c94 E:/nightly/rwsdk.sky/rwsdk/lib/sky2/librpworld.a(nodeps2manager.obj)
                0x000000000015de60                RxPipelineNodePS2ManagerSetPointListVUBufferSize
                0x000000000015d360                RxPipelineNodePS2ManagerSetVU1CodeArray
                0x000000000015db28                RxPipelineNodePS2ManagerNoTexture
                0x000000000015de40                RxPipelineNodePS2ManagerSetVUBufferSizes
                0x000000000015def0                RxPipelineNodePS2ManagerGetVUBatchSize
                0x000000000015df58                RxPipelineNodePS2ManagerSetPostObjectCallBack
                0x000000000015de80                RxPipelineNodePS2ManagerGenerateCluster
                0x000000000015df28                RxPipelineNodePS2ManagerSetInstanceCallBack
                0x000000000015ddc0                RxNodeDefinitionGetPS2Manager
                0x000000000015de20                RxPipelineNodePS2ManagerSetLighting
                0x000000000015d890                RxPipelineNodePS2ManagerSetVIFOffset
                0x000000000015d5f8                RxPipelineNodePS2ManagerGetVU1CodeArray
 *fill*         0x000000000015df84 0x303db800000004
 .text          0x000000000015df88      0xa04 E:/nightly/rwsdk.sky/rwsdk/lib/sky2/librpworld.a(nodeps2matbridge.obj)
                0x000000000015e040                _rwRabinsBridgeNodeCode
                0x000000000015e860                RxNodeDefinitionGetPS2MatBridge
                0x000000000015e948                _rwPS2MatBridgePipelineNodeInit
                0x000000000015e918                RxPipelineNodePS2MatBridgeNoTexture
                0x000000000015e8e8                RxPipelineNodePS2MatBridgeSetVIFOffset
                0x000000000015e870                RxPipelineNodePS2MatBridgeSetVU1CodeArray
                0x000000000015e8a8                RxPipelineNodePS2MatBridgeGetVU1CodeArray
 *fill*         0x000000000015e98c 0x303db800000004
 .text          0x000000000015e990     0x48c0 E:/nightly/rwsdk.sky/rwsdk/lib/sky2/librpworld.a(nodeps2matinstance.obj)
                0x0000000000163128                RxPS2MatInstanceSetPointListVUBufferSize
                0x0000000000162d80                RxPipelineNodePS2MatInstanceGenerateCluster
                0x0000000000163020                RxPS2MatInstanceSetVUBufferSizes
                0x0000000000161050                _rwRabinsMatInstanceCode
                0x0000000000163210                reDestroyCallback
                0x00000000001626e8                _rwPS2MatInstancePipelineNodeInit
                0x0000000000163010                RxNodeDefinitionGetPS2MatInstance
 .text          0x0000000000163250     0x11b0 E:/nightly/rwsdk.sky/rwsdk/lib/sky2/librpworld.a(nodeps2objallinone.obj)
                0x0000000000164080                _rwPS2ObjAllInOnePipelineNodeInit
                0x0000000000164020                RxNodeDefinitionGetPS2ObjAllInOne
                0x00000000001636c8                _rwRabinsObjAllInOneCode
                0x0000000000164070                RxPS2ObjAllInOneSetLighting
                0x0000000000163b48                _rwIm3DObjAllInOneCode
                0x0000000000164170                _rxWorldLightingDefaultCallback
                0x0000000000164060                RxPS2ObjAllInOneSetGrouping
                0x00000000001640a0                _rwInitMeshPacket
 .text          0x0000000000164400      0x260 E:/nightly/rwsdk.sky/rwsdk/lib/sky2/librwcore.a(babbox.obj)
                0x0000000000164400                RwBBoxCalculate
                0x00000000001645c8                RwBBoxContainsPoint
                0x00000000001644f0                RwBBoxInitialize
                0x0000000000164528                RwBBoxAddPoint
 .text          0x0000000000164660      0x6b4 E:/nightly/rwsdk.sky/rwsdk/lib/sky2/librwcore.a(babinary.obj)
                0x0000000000164b00                RwMemRealToFloat32
                0x0000000000164b50                RwMemFloat32ToReal
                0x0000000000164af0                RwMemNative16
                0x0000000000164a90                RwStreamReadInt16
                0x0000000000164af8                RwMemNative32
                0x0000000000164ba0                RwStreamReadChunkHeaderInfo
                0x0000000000164ae8                RwMemLittleEndian32
                0x0000000000164810                _rwStreamWriteVersionedChunkHeader
                0x0000000000164940                RwStreamWriteInt32
                0x0000000000164ae0                RwMemLittleEndian16
                0x0000000000164990                RwStreamReadReal
                0x0000000000164a40                RwStreamReadInt32
                0x0000000000164858                RwStreamWriteReal
                0x0000000000164c68                _rwStreamReadChunkHeader
                0x00000000001646a8                RwStreamFindChunk
                0x0000000000164968                RwStreamWriteInt16
 *fill*         0x0000000000164d14 0x303db800000004
 .text          0x0000000000164d18      0x8e0 E:/nightly/rwsdk.sky/rwsdk/lib/sky2/librwcore.a(babinfrm.obj)
                0x00000000001654c8                _rwFrameListDeinitialize
                0x0000000000165508                _rwFrameListStreamGetSize
                0x0000000000165388                RwFrameSetStreamAlwaysCallBack
                0x0000000000164d18                _rwFrameListStreamWrite
                0x0000000000165488                _rwFrameListFindFrame
                0x0000000000165000                _rwFrameListStreamRead
                0x00000000001653b0                _rwFrameListInitialize
                0x0000000000165350                RwFrameRegisterPluginStream
 .text          0x00000000001655f8     0x1120 E:/nightly/rwsdk.sky/rwsdk/lib/sky2/librwcore.a(babintex.obj)
                0x00000000001655f8                _rwStringStreamFindAndRead
                0x00000000001664a0                RwTexDictionaryRegisterPluginStream
                0x0000000000165f30                RwTexDictionaryStreamRead
                0x00000000001663c8                RwTextureChunkInfoRead
                0x0000000000165ba8                RwTextureStreamRead
                0x0000000000166500                RwTexDictionaryStreamGetSize
                0x00000000001662c0                RwTextureRegisterPluginStream
                0x00000000001664d8                RwTexDictionarySetStreamAlwaysCallBack
                0x0000000000165960                RwTextureStreamWrite
                0x00000000001662f8                RwTextureSetStreamAlwaysCallBack
                0x00000000001661c8                _rwStringDestroy
                0x0000000000166228                _rwStringStreamWrite
                0x0000000000166320                RwTextureStreamGetSize
                0x0000000000165de8                RwTexDictionaryStreamWrite
                0x00000000001661f0                _rwStringStreamGetSize
 .text          0x0000000000166718     0x1d00 E:/nightly/rwsdk.sky/rwsdk/lib/sky2/librwcore.a(bacamera.obj)
                0x0000000000168100                RwCameraGetFarClipPlane
                0x0000000000167e10                RwCameraGetViewWindow
                0x0000000000167d40                RwCameraSetZRaster
                0x0000000000168190                RwCameraValidatePlugins
                0x0000000000168168                RwCameraGetPluginOffset
                0x0000000000168108                RwCameraSetFogDistance
                0x0000000000167cf8                RwCameraSetFrame
                0x0000000000167c98                RwCameraDestroy
                0x0000000000168288                _rwCameraOpen
                0x0000000000167f40                RwCameraGetViewMatrix
                0x0000000000168198                RwCameraFrustumTestSphere
                0x0000000000168028                RwCameraSetFarClipPlane
                0x0000000000167c68                RwCameraShowRaster
                0x0000000000167d38                RwCameraGetRaster
                0x0000000000167e18                RwCameraSetProjection
                0x0000000000167da0                RwCameraGetViewOffset
                0x0000000000167da8                RwCameraSetViewWindow
                0x0000000000167d28                RwCameraSetRaster
                0x0000000000168220                _rwCameraClose
                0x0000000000168020                RwCameraGetNearClipPlane
                0x0000000000167f38                RwCameraGetProjection
                0x0000000000167d50                RwCameraGetZRaster
                0x0000000000167c30                RwCameraClear
                0x0000000000167d20                RwCameraGetFrame
                0x0000000000167f48                RwCameraSetNearClipPlane
                0x0000000000168120                RwCameraRegisterPlugin
                0x00000000001678f0                RwCameraCreate
                0x0000000000167c10                RwCameraEndUpdate
                0x0000000000168118                RwCameraGetFogDistance
                0x0000000000167bf0                RwCameraBeginUpdate
                0x0000000000167a80                RwCameraClone
                0x0000000000167d58                RwCameraSetViewOffset
 .text          0x0000000000168418      0xd04 E:/nightly/rwsdk.sky/rwsdk/lib/sky2/librwcore.a(badevice.obj)
                0x0000000000168b00                RwEngineClose
                0x00000000001688e8                RwEngineSetFocus
                0x0000000000168a00                RwEngineStart
                0x00000000001685e8                RwEngineGetNumSubSystems
                0x0000000000168e50                RwEngineTerm
                0x0000000000168818                RwEngineGetTextureMemorySize
                0x0000000000168880                RwEngineGetMaxTextureSize
                0x0000000000168678                RwEngineSetSubSystem
                0x0000000000168fc8                _rwDeviceSystemRequest
                0x0000000000168cd0                RwEngineInit
                0x0000000000168ea0                RwEngineGetSubSystemInfo
                0x0000000000168e28                RwEngineGetPluginOffset
                0x00000000001687b8                RwEngineSetVideoMode
                0x0000000000168750                RwEngineGetCurrentVideoMode
                0x0000000000168b88                RwEngineOpen
                0x0000000000168948                RwEngineStop
                0x0000000000168cc8                RwEngineGetVersion
                0x0000000000168638                RwEngineGetCurrentSubSystem
                0x0000000000168f48                RwEngineGetVideoModeInfo
                0x00000000001686e8                RwEngineGetNumVideoModes
                0x0000000000168de8                RwEngineRegisterPlugin
                0x00000000001690b8                _rwGetNumEngineInstances
                0x0000000000168fb8                RwEngineGetMetrics
 *fill*         0x000000000016911c 0x303db800000004
 .text          0x0000000000169120      0x12c E:/nightly/rwsdk.sky/rwsdk/lib/sky2/librwcore.a(baerr.obj)
                0x00000000001691a8                RwErrorGet
                0x0000000000169120                _rwerror
                0x00000000001691e8                RwErrorSet
                0x0000000000169160                _rwErrorOpen
                0x0000000000169190                _rwErrorClose
 *fill*         0x000000000016924c 0x303db800000004
 .text          0x0000000000169250     0x1190 E:/nightly/rwsdk.sky/rwsdk/lib/sky2/librwcore.a(baframe.obj)
                0x0000000000169d08                RwFrameInit
                0x0000000000169578                RwFrameRotate
                0x0000000000169678                RwFrameTransform
                0x0000000000169dd0                RwFrameDestroy
                0x0000000000169c18                RwFrameGetLTM
                0x0000000000169f10                RwFrameDirty
                0x0000000000169fe8                RwFrameGetPluginOffset
                0x0000000000169c10                RwFrameGetRoot
                0x0000000000169250                _rwFrameCloneAndLinkClones
                0x0000000000169e80                _rwFrameDeInit
                0x000000000016a010                RwFrameValidatePlugins
                0x0000000000169fa0                RwFrameRegisterPlugin
                0x00000000001698e0                RwFrameDestroyHierarchy
                0x000000000016a018                _rwFramePurgeClone
                0x0000000000169a10                RwFrameRemoveChild
                0x0000000000169830                RwFrameCloneHierarchy
                0x0000000000169d40                RwFrameDeInit
                0x0000000000169c58                RwFrameUpdateObjects
                0x00000000001694f8                RwFrameTranslate
                0x000000000016a0a8                _rwFrameClose
                0x0000000000169f70                RwFrameSetStaticPluginsSize
                0x00000000001696f8                RwFrameOrthoNormalize
                0x00000000001693a8                _rwFrameInit
                0x0000000000169f20                RwFrameCount
                0x0000000000169778                RwFrameSetIdentity
                0x000000000016a110                _rwFrameOpen
                0x0000000000169cb8                RwFrameCreate
                0x0000000000169480                RwFrameForAllObjects
                0x00000000001695f8                RwFrameScale
                0x00000000001699a0                RwFrameForAllChildren
                0x0000000000169af8                RwFrameAddChild
 .text          0x000000000016a3e0      0x108 E:/nightly/rwsdk.sky/rwsdk/lib/sky2/librwcore.a(bafsys.obj)
                0x000000000016a478                _rwFileSystemClose
                0x000000000016a3e0                _rwFileSystemOpen
                0x000000000016a480                RwOsGetFileInterface
 .text          0x000000000016a4e8     0x242c E:/nightly/rwsdk.sky/rwsdk/lib/sky2/librwcore.a(baimage.obj)
                0x000000000016b8e8                RwImageStreamRead
                0x000000000016c438                RwRGBASetFromPixel
                0x000000000016bb68                RwImageStreamWrite
                0x000000000016c3c0                RwImageSetPixels
                0x000000000016c5a0                RwRGBAGammaCorrect
                0x000000000016b4c0                RwImageReadMaskedImage
                0x000000000016c2d0                RwImageSetPath
                0x000000000016c5f8                RwImageRegisterPlugin
                0x000000000016c750                _rwImageGammaUnCorrectArrayOfRGBA
                0x000000000016c670                RwImageFindFileType
                0x000000000016c588                RwImageGetGamma
                0x000000000016a780                RwImageResize
                0x000000000016c1d8                RwImageWrite
                0x000000000016c3f0                RwImageGetDepth
                0x000000000016be78                RwImageCreate
                0x000000000016c470                RwImageSetGamma
                0x000000000016c6a0                RwImageStreamGetSize
                0x000000000016c400                RwImageGetPalette
                0x000000000016bf10                RwImageDestroy
                0x000000000016bc70                RwImageGammaCorrect
                0x000000000016c3f8                RwImageGetPixels
                0x000000000016c0d8                RwImageCopy
                0x000000000016b338                RwImageRegisterImageFormat
                0x000000000016bf80                RwImageAllocatePixels
                0x000000000016aab0                RwImageApplyMask
                0x000000000016c6d0                _rwImageGammaCorrectArrayOfRGBA
                0x000000000016c668                RwImageValidatePlugins
                0x000000000016c088                RwImageFreePixels
                0x000000000016c3b0                RwImageSetStride
                0x000000000016c640                RwImageGetPluginOffset
                0x000000000016c3d0                RwImageSetPalette
                0x000000000016c2b8                RwImageGetPath
                0x000000000016b210                RwImageRead
                0x000000000016a9a0                RwImageMakeMask
                0x000000000016c408                RwRGBAToPixel
                0x000000000016a4e8                _rwImageOpen
                0x000000000016c3e8                RwImageGetHeight
                0x000000000016c3e0                RwImageGetWidth
                0x000000000016a650                _rwImageClose
 *fill*         0x000000000016c914 0x303db800000004
 .text          0x000000000016c918      0x144 E:/nightly/rwsdk.sky/rwsdk/lib/sky2/librwcore.a(baimmedi.obj)
                0x000000000016c938                RwRenderStateGet
                0x000000000016ca38                RwIm2DRenderIndexedPrimitive
                0x000000000016c928                RwIm2DGetFarScreenZ
                0x000000000016c960                RwRenderStateSet
                0x000000000016c9c0                RwIm2DRenderLine
                0x000000000016c9e8                RwIm2DRenderTriangle
                0x000000000016ca10                RwIm2DRenderPrimitive
                0x000000000016c918                RwIm2DGetNearScreenZ
 *fill*         0x000000000016ca5c 0x303db800000004
 .text          0x000000000016ca60      0x41c E:/nightly/rwsdk.sky/rwsdk/lib/sky2/librwcore.a(baimras.obj)
                0x000000000016ca60                RwImageSetFromRaster
                0x000000000016cac8                RwRasterSetFromImage
                0x000000000016cdd8                RwImageFindRasterFormat
                0x000000000016cb30                RwRGBAGetRasterPixel
                0x000000000016cc48                RwRasterRead
                0x000000000016cd08                RwRasterReadMaskedRaster
 *fill*         0x000000000016ce7c 0x303db800000004
 .text          0x000000000016ce80      0x514 E:/nightly/rwsdk.sky/rwsdk/lib/sky2/librwcore.a(balist.obj)
                0x000000000016d0a0                _rwSListEmpty
                0x000000000016d318                _rwSListToArray
                0x000000000016d000                _rwSListDestroyEndEntries
                0x000000000016cfd8                _rwSListDestroyArray
                0x000000000016ce80                _rwSListCreate
                0x000000000016d0a8                _rwSListGetArray
                0x000000000016d0c8                _rwSListGetEntry
                0x000000000016d1e8                _rwSListGetNewEntries
                0x000000000016d0e0                _rwSListGetNewEntry
                0x000000000016d010                _rwSListDestroyEntry
                0x000000000016cf70                _rwSListDestroy
                0x000000000016d308                _rwSListGetNumEntries
                0x000000000016d310                _rwSListReleaseArray
 *fill*         0x000000000016d394 0x303db800000004
 .text          0x000000000016d398     0x1f98 E:/nightly/rwsdk.sky/rwsdk/lib/sky2/librwcore.a(bamatrix.obj)
                0x000000000016f150                _rwMatrixIdentityError
                0x000000000016e738                RwMatrixScale
                0x000000000016ef70                RwMatrixUpdate
                0x000000000016eb38                RwMatrixDestroy
                0x000000000016ef50                RwMatrixQueryRotate
                0x000000000016ef90                _rwMatrixDeterminant
                0x000000000016ee58                RwMatrixRotate
                0x000000000016f010                _rwMatrixNormalError
                0x000000000016ee38                RwMatrixOrthoNormalize
                0x000000000016f0b8                _rwMatrixOrthogonalError
                0x000000000016f200                _rwMatrixSetOptimizations
                0x000000000016ec78                RwMatrixTransform
                0x000000000016f250                _rwMatrixOpen
                0x000000000016e308                RwMatrixRotateOneMinusCosineSine
                0x000000000016e5b0                RwMatrixInvert
                0x000000000016e100                RwMatrixOptimize
                0x000000000016ebf8                RwMatrixMultiply
                0x000000000016f2c8                _rwMatrixClose
                0x000000000016eb70                RwMatrixCreate
                0x000000000016e978                RwMatrixTranslate
                0x000000000016f220                _rwMatrixSetMultFn
 .text          0x000000000016f330      0x968 E:/nightly/rwsdk.sky/rwsdk/lib/sky2/librwcore.a(bamemory.obj)
                0x000000000016f9f8                RwFreeListPurge
                0x000000000016fbb0                _rwMemoryOpen
                0x000000000016faa8                RwFreeListForAllUsed
                0x000000000016fba8                _rwMemoryClose
                0x000000000016f808                RwFreeListPurgeAllFreeLists
                0x000000000016f930                RwFreeListDestroy
                0x000000000016f670                _rwFreeListAllocReal
                0x000000000016f910                RwFreeListCreate
                0x000000000016f9e0                _rwFreeListFreeReal
                0x000000000016f900                RwOsGetMemoryInterface
 .text          0x000000000016fc98      0x7e8 E:/nightly/rwsdk.sky/rwsdk/lib/sky2/librwcore.a(baraster.obj)
                0x000000000016fc98                _rwRasterOpen
                0x000000000016fec8                RwRasterGetOffset
                0x0000000000170320                RwRasterLockPalette
                0x0000000000170088                RwRasterPushContext
                0x0000000000170168                RwRasterGetCurrentContext
                0x000000000016fd60                RwRasterCreate
                0x00000000001702a0                RwRasterLock
                0x000000000016fe58                RwRasterDestroy
                0x0000000000170100                RwRasterPopContext
                0x0000000000170208                RwRasterClearRect
                0x00000000001703a0                RwRasterRegisterPlugin
                0x00000000001702e0                RwRasterUnlock
                0x000000000016ff30                RwRasterSubRaster
                0x0000000000170410                RwRasterValidatePlugins
                0x0000000000170050                RwRasterRenderScaled
                0x0000000000170358                RwRasterUnlockPalette
                0x0000000000170238                RwRasterShowRaster
                0x000000000016ffd0                RwRasterRenderFast
                0x0000000000170010                RwRasterRender
                0x000000000016fee0                RwRasterGetNumLevels
                0x0000000000170190                RwRasterClear
                0x00000000001703e8                RwRasterGetPluginOffset
                0x0000000000170418                _rwRasterClose
 .text          0x0000000000170480      0x950 E:/nightly/rwsdk.sky/rwsdk/lib/sky2/librwcore.a(baresamp.obj)
                0x0000000000170ca0                RwImageCreateResample
                0x0000000000170a90                RwImageResample
 .text          0x0000000000170dd0      0x7e4 E:/nightly/rwsdk.sky/rwsdk/lib/sky2/librwcore.a(baresour.obj)
                0x0000000000171370                RwResourcesGetArenaUsage
                0x0000000000171458                _rwResourcesPurge
                0x0000000000171358                RwResourcesGetArenaSize
                0x00000000001714e8                RwResourcesUseResEntry
                0x0000000000171230                RwResourcesEmptyArena
                0x0000000000171130                RwResourcesSetArenaSize
                0x0000000000171540                _rwResourcesClose
                0x00000000001713b0                RwResourcesFreeResEntry
                0x0000000000170f00                _rwResourcesAllocateResEntry
                0x0000000000170dd0                _rwResourcesOpen
 *fill*         0x00000000001715b4 0x303db800000004
 .text          0x00000000001715b8      0x9c4 E:/nightly/rwsdk.sky/rwsdk/lib/sky2/librwcore.a(bastream.obj)
                0x0000000000171da8                RwStreamClose
                0x00000000001719c8                RwStreamWrite
                0x0000000000171f28                _rwStreamModuleClose
                0x0000000000171bb8                RwStreamSkip
                0x0000000000171d00                RwStreamOpen
                0x0000000000171ec0                _rwStreamModuleOpen
                0x0000000000171828                RwStreamRead
                0x00000000001715b8                _rwStreamInitialize
 *fill*         0x0000000000171f7c 0x303db800000004
 .text          0x0000000000171f80      0x494 E:/nightly/rwsdk.sky/rwsdk/lib/sky2/librwcore.a(basync.obj)
                0x0000000000172178                _rwFrameSyncHierarchyLTM
                0x0000000000172110                _rwFrameSyncDirty
 *fill*         0x0000000000172414 0x303db800000004
 .text          0x0000000000172418     0x23b8 E:/nightly/rwsdk.sky/rwsdk/lib/sky2/librwcore.a(batextur.obj)
                0x00000000001742c0                RwTextureSetRaster
                0x0000000000174320                RwTextureSetAddressing
                0x0000000000173d38                RwTextureSetAutoMipmapping
                0x0000000000174350                RwTexDictionaryAddTexture
                0x0000000000174640                RwTexDictionaryRegisterPlugin
                0x0000000000174508                RwTextureGetDictionary
                0x0000000000173da8                RwTextureSetMipmapNameCallBack
                0x00000000001745f8                RwTextureRegisterPlugin
                0x0000000000173e78                _rwTextureGetAutoMipMapState
                0x00000000001746b0                RwTexDictionaryGetPluginOffset
                0x0000000000173ed8                RwTextureSetName
                0x0000000000174580                RwTexDictionaryForAllTexDictionaries
                0x0000000000174168                RwTextureCreate
                0x00000000001741f0                RwTextureAddRef
                0x0000000000173718                RwTextureRead
                0x00000000001746d8                RwTextureValidatePlugins
                0x0000000000174688                RwTextureGetPluginOffset
                0x00000000001743e0                RwTexDictionaryFindNamedTexture
                0x0000000000174340                RwTextureSetAddressingV
                0x0000000000173e90                RwTextureGetReadCallBack
                0x0000000000173b38                _rwTextureOpen
                0x0000000000173d20                RwTextureGetMipmapping
                0x00000000001744d0                RwTexDictionaryGetCurrent
                0x0000000000174510                RwTexDictionaryForAllTextures
                0x0000000000173f78                RwTextureSetMaskName
                0x0000000000173d70                RwTextureSetMipmapGenerationCallBack
                0x0000000000173d00                RwTextureSetMipmapping
                0x00000000001744e8                RwTexDictionarySetCurrent
                0x0000000000173d90                RwTextureGetMipmapGenerationCallBack
                0x0000000000173ea8                RwTextureSetReadCallBack
                0x0000000000174310                RwTextureSetFilterMode
                0x0000000000174018                RwTexDictionaryCreate
                0x0000000000173998                _rwTextureClose
                0x0000000000174208                RwTextureDestroy
                0x0000000000173ed0                RwTextureGetMaskName
                0x0000000000173dc8                RwTextureGetMipmapNameCallBack
                0x0000000000173e20                RwTextureRasterGenerateMipmaps
                0x0000000000173de0                RwTextureGenerateMipmapName
                0x0000000000173d58                RwTextureGetAutoMipmapping
                0x00000000001743a8                RwTexDictionaryRemoveTexture
                0x0000000000173ec8                RwTextureGetName
                0x00000000001746e0                RwTexDictionaryValidatePlugins
                0x0000000000174330                RwTextureSetAddressingU
                0x0000000000173e58                _rwTextureSetAutoMipMapState
                0x00000000001740c8                RwTexDictionaryDestroy
 .text          0x00000000001747d0      0x444 E:/nightly/rwsdk.sky/rwsdk/lib/sky2/librwcore.a(batkbin.obj)
                0x0000000000174998                _rwPluginRegistryAddPlgnStrmlwysCB
                0x0000000000174ba0                _rwPluginRegistryGetSize
                0x0000000000174958                _rwPluginRegistryAddPluginStream
                0x00000000001747d0                _rwPluginRegistryReadDataChunks
                0x0000000000174b00                _rwPluginRegistrySkipDataChunks
                0x00000000001749d0                _rwPluginRegistryWriteDataChunks
 *fill*         0x0000000000174c14 0x303db800000004
 .text          0x0000000000174c18      0x458 E:/nightly/rwsdk.sky/rwsdk/lib/sky2/librwcore.a(batkreg.obj)
                0x0000000000174fa0                _rwPluginRegistryCopyObject
                0x0000000000174cd0                _rwPluginRegistryAddPlugin
                0x0000000000174c88                _rwPluginRegistrySetStaticPluginsSize
                0x0000000000174c48                _rwPluginRegistryClose
                0x0000000000174ea8                _rwPluginRegistryInitObject
                0x0000000000174f40                _rwPluginRegistryDeInitObject
                0x0000000000174c18                _rwPluginRegistryOpen
                0x0000000000174e78                _rwPluginRegistryGetPluginOffset
 .text          0x0000000000175070       0xa0 E:/nightly/rwsdk.sky/rwsdk/lib/sky2/librwcore.a(batypehf.obj)
                0x00000000001750e0                _rwObjectHasFrameReleaseFrame
                0x0000000000175070                _rwObjectHasFrameSetFrame
 .text          0x0000000000175110      0x828 E:/nightly/rwsdk.sky/rwsdk/lib/sky2/librwcore.a(bavector.obj)
                0x0000000000175430                RwV2dLength
                0x0000000000175690                _rwVectorOpen
                0x00000000001757a8                _rwVectorSetMultFn
                0x0000000000175530                RwV3dTransformVectors
                0x0000000000175610                _rwV3dNormalize
                0x0000000000175710                _rwVectorClose
                0x0000000000175400                RwV3dLength
                0x0000000000175560                _rwSqrt
                0x00000000001755b8                _rwInvSqrt
                0x0000000000175338                RwV3dNormalize
                0x0000000000175500                RwV3dTransformPoints
                0x0000000000175450                RwV2dNormalize
 .text          0x0000000000175938      0x688 E:/nightly/rwsdk.sky/rwsdk/lib/sky2/librwcore.a(resmem.obj)
                0x0000000000175df0                _rwResHeapClose
                0x0000000000175d98                _rwResHeapInit
                0x0000000000175e48                _rwResHeapFree
                0x0000000000175f00                _rwResHeapGetStats
                0x0000000000175938                _rwResHeapAlloc
                0x0000000000175df8                _rwResHeapCalloc
                0x0000000000175a80                _rwResHeapRealloc
 .text          0x0000000000175fc0      0x260 E:/nightly/rwsdk.sky/rwsdk/lib/sky2/librwcore.a(rwstring.obj)
                0x00000000001760b0                _rwStringClose
                0x0000000000175fc0                _rwStringOpen
 .text          0x0000000000176220     0x1198 E:/nightly/rwsdk.sky/rwsdk/lib/sky2/librwcore.a(baim3d.obj)
                0x0000000000177260                RwIm3DGetRenderPipeline
                0x0000000000177038                RwIm3DRenderTriangle
                0x0000000000177248                RwIm3DGetTransformPipeline
                0x0000000000176d98                _rwIm3DClose
                0x00000000001763b0                RwIm3DRenderPrimitive
                0x0000000000177150                RwIm3DGetGenericTransformPipeline
                0x0000000000177360                RwIm3DSetTransformPipeline
                0x0000000000177168                RwIm3DGetGenericRenderPipeline
                0x0000000000176b60                _rwIm3DOpen
                0x0000000000176220                RwIm3DRenderIndexedPrimitive
                0x0000000000176ef0                RwIm3DEnd
                0x0000000000176f40                RwIm3DRenderLine
                0x0000000000176538                RwIm3DSetRenderPipeline
                0x0000000000176e30                _rwIm3DGetPool
                0x0000000000176e48                RwIm3DTransform
 .text          0x00000000001773b8       0x68 E:/nightly/rwsdk.sky/rwsdk/lib/sky2/librwcore.a(bapipe.obj)
                0x00000000001773e8                _rwRenderPipelineClose
                0x00000000001773b8                _rwRenderPipelineOpen
                0x0000000000177418                _rwPipeInitForCamera
                0x0000000000177410                _rwPipeAttach
 .text          0x0000000000177420     0x1094 E:/nightly/rwsdk.sky/rwsdk/lib/sky2/librwcore.a(nodeClipLine.obj)
                0x00000000001784a8                RxNodeDefinitionGetClipLine
 *fill*         0x00000000001784b4 0x303db800000004
 .text          0x00000000001784b8     0x1624 E:/nightly/rwsdk.sky/rwsdk/lib/sky2/librwcore.a(nodeClipTriangle.obj)
                0x0000000000179ad0                RxNodeDefinitionGetClipTriangle
 *fill*         0x0000000000179adc 0x303db800000004
 .text          0x0000000000179ae0      0x824 E:/nightly/rwsdk.sky/rwsdk/lib/sky2/librwcore.a(nodeCullTriangle.obj)
                0x000000000017a288                RxNodeDefinitionGetCullTriangle
 *fill*         0x000000000017a304 0x303db800000004
 .text          0x000000000017a308      0x354 E:/nightly/rwsdk.sky/rwsdk/lib/sky2/librwcore.a(nodeImmInstance.obj)
                0x000000000017a650                RxNodeDefinitionGetImmInstance
 *fill*         0x000000000017a65c 0x303db800000004
 .text          0x000000000017a660      0x36c E:/nightly/rwsdk.sky/rwsdk/lib/sky2/librwcore.a(nodeImmMangleLineIndices.obj)
                0x000000000017a9c0                RxNodeDefinitionGetImmMangleLineIndices
 *fill*         0x000000000017a9cc 0x303db800000004
 .text          0x000000000017a9d0      0x524 E:/nightly/rwsdk.sky/rwsdk/lib/sky2/librwcore.a(nodeImmMangleTriangleIndices.obj)
                0x000000000017aee8                RxNodeDefinitionGetImmMangleTriangleIndices
 *fill*         0x000000000017aef4 0x303db800000004
 .text          0x000000000017aef8      0x3d4 E:/nightly/rwsdk.sky/rwsdk/lib/sky2/librwcore.a(nodeImmRenderSetup.obj)
                0x000000000017b2c0                RxNodeDefinitionGetImmRenderSetup
 *fill*         0x000000000017b2cc 0x303db800000004
 .text          0x000000000017b2d0      0x204 E:/nightly/rwsdk.sky/rwsdk/lib/sky2/librwcore.a(nodeImmStash.obj)
                0x000000000017b4c8                RxNodeDefinitionGetImmStash
 *fill*         0x000000000017b4d4 0x303db800000004
 .text          0x000000000017b4d8      0x2f4 E:/nightly/rwsdk.sky/rwsdk/lib/sky2/librwcore.a(nodeSubmitLine.obj)
                0x000000000017b7c0                RxNodeDefinitionGetSubmitLine
 *fill*         0x000000000017b7cc 0x303db800000004
 .text          0x000000000017b7d0      0x2a4 E:/nightly/rwsdk.sky/rwsdk/lib/sky2/librwcore.a(nodeSubmitTriangle.obj)
                0x000000000017ba68                RxNodeDefinitionGetSubmitTriangle
 *fill*         0x000000000017ba74 0x303db800000004
 .text          0x000000000017ba78      0xcd4 E:/nightly/rwsdk.sky/rwsdk/lib/sky2/librwcore.a(nodeTransform.obj)
                0x000000000017c6f8                RxNodeDefinitionGetTransform
 *fill*         0x000000000017c74c 0x303db800000004
 .text          0x000000000017c750      0x3a8 E:/nightly/rwsdk.sky/rwsdk/lib/sky2/librwcore.a(p2altmdl.obj)
                0x000000000017ca58                _rxPacketDestroy
                0x000000000017c750                _rxEmbeddedPacketBetweenPipelines
                0x000000000017c8f8                _rxEmbeddedPacketBetweenNodes
 .text          0x000000000017caf8     0x1cd0 E:/nightly/rwsdk.sky/rwsdk/lib/sky2/librwcore.a(p2clpcom.obj)
                0x000000000017e630                _rwGenerateParallelXHIClippedVertex
                0x000000000017caf8                _rwForAllEdgesWithRxInterpolant
                0x000000000017d1a8                _rwGeneratePerspClippedVertexYLO
                0x000000000017e4a0                _rwGenerateParallelXLOClippedVertex
                0x000000000017db80                _rwGenerateParallelYHIClippedVertex
                0x000000000017e170                _rwGeneratePerspClippedVertexXLO
                0x000000000017cd78                _rwGeneratePerspClippedVertexZLO
                0x000000000017d9a8                _rwGenerateParallelYLOClippedVertex
                0x000000000017dd58                _rwForAllEdgesWithoutRxInterpolant
                0x000000000017d780                _rwGenerateParallelZHIClippedVertex
                0x000000000017df68                _rwForAllEdges
                0x000000000017d378                _rwGeneratePerspClippedVertexYHI
                0x000000000017dfa0                _rwForOneEdge
                0x000000000017cf90                _rwGeneratePerspClippedVertexZHI
                0x000000000017e300                _rwGeneratePerspClippedVertexXHI
                0x000000000017d558                _rwGenerateParallelZLOClippedVertex
 .text          0x000000000017e7c8      0x9ec E:/nightly/rwsdk.sky/rwsdk/lib/sky2/librwcore.a(p2core.obj)
                0x000000000017ee10                RxClusterInitializeData
                0x000000000017e900                _rxPipelineDestroy
                0x000000000017f138                RxClusterGetAttributes
                0x000000000017f108                RxPipelineClusterGetCreationAttributes
                0x000000000017f150                RxClusterSetAttributes
                0x000000000017eb58                RxPipelineCreate
                0x000000000017ebd0                RxHeapGetGlobalHeap
                0x000000000017ecd0                RxClusterSetStride
                0x000000000017ec98                RxPacketCreate
                0x000000000017ece0                RxClusterSetExternalData
                0x000000000017f168                _rwPipelineCheckForTramplingOfNodePrivateSpace
                0x000000000017eac0                _rxPipelineOpen
                0x000000000017ef28                RxClusterDestroyData
                0x000000000017ebd8                RxPipelineExecute
                0x000000000017f0b8                RxPipelineNodeGetPipelineCluster
                0x000000000017f120                RxPipelineClusterSetCreationAttributes
                0x000000000017e7c8                RxClusterLockWrite
                0x000000000017eea8                RxClusterResizeData
                0x000000000017eb28                _rxPipelineClose
                0x000000000017ef78                RxClusterUnlock
                0x000000000017ef80                RxPipelineNodeSendConfigMsg
                0x000000000017efc0                RxPipelineNodeForAllConnectedOutputs
                0x000000000017ed78                RxClusterSetData
 *fill*         0x000000000017f1b4 0x303db800000004
 .text          0x000000000017f1b8     0x2634 E:/nightly/rwsdk.sky/rwsdk/lib/sky2/librwcore.a(p2define.obj)
                0x0000000000180668                RxLockedPipeDeleteNode
                0x00000000001802e0                RxLockedPipeAddFragment
                0x00000000001814d0                RxLockedPipeReplaceNode
                0x0000000000180f10                RxPipelineNodeFindOutputByIndex
                0x0000000000180e60                RxPipelineNodeFindOutputByName
                0x00000000001801e8                RxPipelineLock
                0x0000000000181708                RxLockedPipeAddPath
                0x0000000000180f48                RxPipelineNodeFindInput
                0x0000000000181298                RxPipelineClone
                0x0000000000180810                RxPipelineInsertDebugNode
                0x0000000000181798                RxLockedPipeDeletePath
                0x0000000000181348                RxPipelineFindNodeByName
                0x00000000001814a0                RxPipelineFindNodeByIndex
                0x00000000001816b8                RxLockedPipeGetEntryPoint
                0x0000000000180f68                RxPipelineNodeCloneDefinition
                0x00000000001811e8                RxPipelineNodeCreateInitData
                0x00000000001810f8                RxPipelineNodeReplaceCluster
                0x0000000000181008                RxPipelineNodeRequestCluster
                0x0000000000181640                RxLockedPipeSetEntryPoint
                0x000000000017ffd0                RxLockedPipeUnlock
                0x00000000001811d8                RxPipelineNodeGetInitData
 *fill*         0x00000000001817ec 0x303db800000004
 .text          0x00000000001817f0     0x1b44 E:/nightly/rwsdk.sky/rwsdk/lib/sky2/librwcore.a(p2dep.obj)
                0x0000000000183120                _rxChaseDependencies
 *fill*         0x0000000000183334 0x303db800000004
 .text          0x0000000000183338      0xf8c E:/nightly/rwsdk.sky/rwsdk/lib/sky2/librwcore.a(p2heap.obj)
                0x00000000001839b8                RxHeapAlloc
                0x0000000000184130                RxHeapCreate
                0x0000000000183760                RxHeapFree
                0x0000000000183bd8                RxHeapRealloc
                0x0000000000183d90                RxHeapReset
                0x0000000000184228                RxHeapDestroy
 *fill*         0x00000000001842c4 0x303db800000004
 .text          0x00000000001842c8      0x508 E:/nightly/rwsdk.sky/rwsdk/lib/sky2/librwcore.a(p2renderstate.obj)
                0x00000000001845e0                RxRenderStateVectorGetDefaultRenderStateVector
                0x00000000001842c8                RxRenderStateVectorSetDefaultRenderStateVector
                0x0000000000184438                RxRenderStateVectorLoadDriverState
                0x0000000000184640                RxRenderStateVectorCreate
                0x0000000000184780                RxRenderStateVectorDestroy
 .text          0x00000000001847d0      0x5a8 E:/nightly/rwsdk.sky/rwsdk/lib/sky2/librwcore.a(p2resort.obj)
                0x00000000001847d0                _rx_rxRadixExchangeSort
                0x0000000000184c48                _rxSelectionSort
 .text          0x0000000000184d78       0x20 E:/nightly/rwsdk.sky/rwsdk/lib/sky2/librwcore.a(im3dpipe.obj)
                0x0000000000184d90                _rwIm3DDestroyPlatformRenderPipelines
                0x0000000000184d78                _rwIm3DCreatePlatformTransformPipeline
                0x0000000000184d80                _rwIm3DCreatePlatformRenderPipelines
                0x0000000000184d88                _rwIm3DDestroyPlatformTransformPipeline
 .text          0x0000000000184d98     0x2b40 E:/nightly/rwsdk.sky/rwsdk/lib/sky2/librwcore.a(badma.obj)
                0x00000000001874b0                _sweUnhook
                0x0000000000185580                _sweGarbageCollectChain
                0x00000000001877c0                _sweProcrastinatedAddURef
                0x0000000000186618                _sweOpen
                0x0000000000187410                _sweWaitQueue
                0x0000000000186468                _sweHook
                0x00000000001878d0                _sweReadTimer
                0x0000000000186908                _sweClose
                0x0000000000187898                sweDmaSend
                0x0000000000187680                _sweWaitFlip
                0x0000000000187100                _sweAddCont
                0x0000000000184d98                sweCloseLocalPkt
                0x0000000000185060                sweOpenLocalPkt
                0x0000000000187838                _swePreAlloc
                0x0000000000187698                _sweAddPkt
                0x0000000000185348                sweFinaliseOpenLocalPkt
                0x0000000000186ad8                _sweFlush
                0x0000000000184f10                sweFlushPURef
                0x00000000001875d0                _sweReqFlip
                0x0000000000187288                _sweAddPrim
                0x0000000000186ff8                _sweAppendToChain
 .text          0x00000000001878d8     0x9010 E:/nightly/rwsdk.sky/rwsdk/lib/sky2/librwcore.a(basky.obj)
                0x00000000001902c8                RpSkyGetTrueTLClipper
                0x0000000000190398                RpSkyGetDrawBufferRaster
                0x00000000001878d8                _rwSkySetRenderState
                0x00000000001901d0                RpSkyTextureSetMipmapL
                0x0000000000190110                RpSkyTextureGetDefaultMipmapK
                0x000000000018ffb0                _skyRasterGetTwiddling
                0x0000000000188538                RpSkyRenderStateSet
                0x0000000000190390                RpSkyGetDisplayBufferRaster
                0x0000000000190048                RpSkySelectDeepZBuffer
                0x000000000018ff78                RpSkySuspend
                0x000000000018ff08                _rwSkyFindMSB
                0x00000000001903a0                _rpSkyCreateFrameBufferRasters
                0x000000000018fef8                _rwDeviceGetHandle
                0x0000000000190270                RpSkyTextureGetMipmapL
                0x000000000018ffc8                _skyRasterSetTwiddling
                0x00000000001902b8                RpSkySelectTrueTLClipper
                0x00000000001902a0                RpSkySelectTrueTSClipper
                0x000000000018fff0                _rpSkyFrameBufferRastersUpdate
                0x0000000000190088                RpSkyTextureSetDefaultMipmapK
                0x000000000018ff28                _rwSkyFSAAMode0SetVisibleWidth
                0x00000000001902d0                RpSkyRenderStateGet
                0x0000000000190218                RpSkyTextureGetMipmapK
                0x0000000000190158                RpSkyTextureSetMipmapK
                0x000000000018fbd8                RpSkyResume
                0x0000000000190148                RpSkyTextureGetDefaultMipmapL
                0x00000000001902b0                RpSkyGetTrueTSClipper
                0x00000000001900f0                RpSkyTextureSetDefaultMipmapL
 .text          0x00000000001908e8      0x18c E:/nightly/rwsdk.sky/rwsdk/lib/sky2/librwcore.a(baskytran.obj)
                0x0000000000190960                vectorASMMultPoint
                0x00000000001908e8                matrixASMMult
                0x00000000001909f0                vectorASMMultVector
 *fill*         0x0000000000190a74 0x303db800000004
 .text          0x0000000000190a78      0x828 E:/nightly/rwsdk.sky/rwsdk/lib/sky2/librwcore.a(dmaalloc.obj)
                0x0000000000190c70                circularAllocOpen
                0x0000000000191258                circularLimitAlloc
                0x0000000000191170                circularAllocClose
                0x00000000001910f0                circularFree
                0x0000000000190d88                circularAllocPreAlloc
                0x0000000000190f88                circularMalloc
                0x0000000000191008                circularRealloc
 .text          0x00000000001912a0     0x1f34 E:/nightly/rwsdk.sky/rwsdk/lib/sky2/librwcore.a(skyblit.obj)
                0x0000000000192268                _rwSkyRasterRender
                0x0000000000192790                _rwSkyRasterRenderScaled
                0x0000000000193118                _rwSkyRasterInitiateStop
                0x00000000001930a8                _rwSkyRasterFinaliseStart
                0x00000000001931a0                _rwSkyRasterSetContext
                0x0000000000192d28                _rwSkyRasterRenderFast
                0x0000000000193158                _rwSkyRasterClear
                0x0000000000191770                _rwSkyRasterClearRect
 *fill*         0x00000000001931d4 0x303db800000004
 .text          0x00000000001931d8     0x1958 E:/nightly/rwsdk.sky/rwsdk/lib/sky2/librwcore.a(skyconv.obj)
                0x0000000000194840                _rwSkyRGBToPixel
                0x0000000000194a20                _rwSkyRasterSetImage
                0x0000000000194938                _rwSkyPixelToRGB
                0x00000000001931d8                _rwSkyImageFindRasterFormat
                0x0000000000193360                _rwSkyImageGetRaster
 .text          0x0000000000194b30     0x2e70 E:/nightly/rwsdk.sky/rwsdk/lib/sky2/librwcore.a(skyinst.obj)
                0x0000000000197498                _rwSkyPipeSetupForCamera
                0x00000000001977b8                _rwSkyOverloadPipelines
                0x0000000000195030                openVU1SetupPkt
                0x0000000000197808                _rwSkyUnOverloadPipelines
 .text          0x00000000001979a0     0x2fa0 E:/nightly/rwsdk.sky/rwsdk/lib/sky2/librwcore.a(texcache.obj)
                0x000000000019a680                RpSkyTexGetTex0
                0x000000000019a5d8                RpSkyTexCacheDisable
                0x000000000019a758                RpSkyUploadPixelData
                0x000000000019a6f8                RpSkyTexGetMiptbp12
                0x000000000019a770                skyFillInPktForUpLoadAlignedContiguousRectangle
                0x000000000019a650                RpSkyTexCacheRasterGetAddr
                0x0000000000199d20                RpSkyTexCacheReleaseRaster
                0x0000000000199848                skyTexCacheCloseCache
                0x000000000019a180                RpSkyTexCacheFlush
                0x000000000019a230                RpSkyTexCacheRestore
                0x000000000019a6a0                RpSkyTexSetMiptbp1
                0x000000000019a6d8                RpSkyTexSetMiptbp12
                0x000000000019a478                RpSkyTexCacheAccessSpeculate
                0x0000000000197c18                skyPrepareUploadRaster
                0x000000000019a628                RpSkyTexCacheSetCallBack
                0x000000000019a668                RpSkyTexSetTex0
                0x000000000019a760                RpSkyTexCacheUploadRaster
                0x000000000019a6b8                RpSkyTexGetMiptbp1
                0x0000000000199ec8                RpSkyTexCacheRasterLock
                0x000000000019a5d0                RpSkyTextureCacheSetState
                0x0000000000199750                skyTexCacheOpenCache
                0x000000000019a618                RpSkyTexGetSize
                0x000000000019a728                RpSkyTexCacheValidateRaster
                0x000000000019a768                skyTexCacheEndFrame
                0x0000000000199970                RpSkyTexCacheAccessRaster
                0x000000000019a530                RpSkyTexCacheRasterUnlockAll
                0x000000000019a608                RpSkyTexGetStartAddress
 .text          0x000000000019a940     0x1a24 E:/nightly/rwsdk.sky/rwsdk/lib/sky2/librwcore.a(imrascnv.obj)
                0x000000000019bee8                _rwMipmapRasterSetFromImage4444
                0x000000000019ae80                _rwRasterSetFromImage4444
                0x000000000019bd68                _rwMipmapRasterSetFromImage888
                0x000000000019b240                _rwRasterSetFromImage565
                0x000000000019b908                _rwImageSetFromRaster4444
                0x000000000019b408                _rwRGBAFromImage8
                0x000000000019b7b8                _rwImageSetFromRaster888
                0x000000000019b4f8                _rwRGBAFromImage32
                0x000000000019b9e8                _rwImageSetFromRaster1555
                0x000000000019c1f0                _rwMipmapRasterSetFromImage565
                0x000000000019ab00                _rwRasterSetFromImage8888
                0x000000000019b5a0                _rwImageFindNearestPaletteColor
                0x000000000019acc8                _rwRasterSetFromImage888
                0x000000000019c068                _rwMipmapRasterSetFromImage1555
                0x000000000019bbf0                _rwMipmapRasterSetFromImage8888
                0x000000000019a940                _rwImageFindAlphaType
                0x000000000019b058                _rwRasterSetFromImage1555
                0x000000000019b6d0                _rwImageSetFromRaster8888
                0x000000000019baf0                _rwImageSetFromRaster565
 *fill*         0x000000000019c364 0x303db800000004
 .text          0x000000000019c368     0x210c E:/nightly/rwsdk.sky/rwsdk/lib/sky2/librwcore.a(palquant.obj)
                0x000000000019db40                _rwPalQuantMatchImage
                0x000000000019e108                _rwPalQuantInit
                0x000000000019c368                _rwPalQuantAddImage
                0x000000000019e210                _rwPalQuantTerm
                0x000000000019d670                _rwPalQuantResolvePalette
 *fill*         0x000000000019e474 0x303db800000004
 .text          0x000000000019e478       0x50 E:/nightly/rwsdk.sky/rwsdk/lib/sky2/librwcore.a(osintf.obj)
                0x000000000019e4c0                _rwgetcurrenttime
                0x000000000019e478                _rwpathisabsolute
 .text          0x000000000019e4c8       0x2c E:/nightly/rwsdk.sky/rwsdk/lib/sky2/librwcore.a(bacolor.obj)
                0x000000000019e4e0                _rwColorClose
                0x000000000019e4c8                _rwColorOpen
 *fill*         0x000000000019e4f4 0x303db800000004
 .text          0x000000000019e4f8       0x6c E:/nightly/rwsdk.sky/rwsdk/lib/sky2/librwcore.a(baevent.obj)
                0x000000000019e4f8                _rwSkyInitConfigSystem
 *fill*         0x000000000019e564 0x303db800000004
 .text          0x000000000019e568      0x19c E:/usr/local/sce/ee/lib/libgraph.a(graph001.o)
                0x000000000019e6f8                sceGsGetGParam
                0x000000000019e568                sceGsResetGraph
 *fill*         0x000000000019e704 0x303db800000004
 .text          0x000000000019e708       0x68 E:/usr/local/sce/ee/lib/libgraph.a(graph002.o)
                0x000000000019e708                sceGsResetPath
 .text          0x000000000019e770       0x94 E:/usr/local/sce/ee/lib/libgraph.a(graph011.o)
                0x000000000019e770                sceGsSyncV
 *fill*         0x000000000019e804 0x303db800000004
 .text          0x000000000019e808      0x314 E:/usr/local/sce/ee/lib/libgraph.a(graph012.o)
                0x000000000019e808                sceGsSyncPath
 *fill*         0x000000000019eb1c 0x303db800000004
 .text          0x000000000019eb20      0x140 E:/usr/local/sce/ee/lib/libgraph.a(graph016.o)
                0x000000000019eb20                sceGsSetDefStoreImage
 .text          0x000000000019ec60      0x68c E:/usr/local/sce/ee/lib/libgraph.a(graph018.o)
                0x000000000019ec60                sceGsExecStoreImage
 *fill*         0x000000000019f2ec 0x303db800000004
 .text          0x000000000019f2f0       0x88 E:/usr/local/sce/ee/lib/libgraph.a(graph021.o)
                0x000000000019f2f0                sceGsSetHalfOffset
 .text          0x000000000019f378       0x88 E:/usr/local/sce/ee/lib/libgraph.a(graph026.o)
                0x000000000019f378                sceGsSetHalfOffset2
 .text          0x000000000019f400      0x2e4 E:/usr/local/sce/ee/lib/libgraph.a(graph027.o)
                0x000000000019f400                sceGsSetDefDBuffDc
 *fill*         0x000000000019f6e4 0x303db800000004
 .text          0x000000000019f6e8       0x5c E:/usr/local/sce/ee/lib/libgraph.a(graph028.o)
                0x000000000019f6e8                sceGsSwapDBuffDc
 *fill*         0x000000000019f744 0x303db800000004
 .text          0x000000000019f748      0x270 E:/usr/local/sce/ee/lib/libgraph.a(graph003.o)
                0x000000000019f748                sceGsSetDefDispEnv
 .text          0x000000000019f9b8       0xbc E:/usr/local/sce/ee/lib/libgraph.a(graph004.o)
                0x000000000019f9b8                sceGsPutDispEnv
 *fill*         0x000000000019fa74 0x303db800000004
 .text          0x000000000019fa78       0xc8 E:/usr/local/sce/ee/lib/libgraph.a(graph005.o)
                0x000000000019fa78                sceGszbufaddr
 .text          0x000000000019fb40      0x1e4 E:/usr/local/sce/ee/lib/libgraph.a(graph006.o)
                0x000000000019fb40                sceGsSetDefDrawEnv
 *fill*         0x000000000019fd24 0x303db800000004
 .text          0x000000000019fd28      0x104 E:/usr/local/sce/ee/lib/libgraph.a(graph007.o)
                0x000000000019fd28                sceGsSetDefClear
 *fill*         0x000000000019fe2c 0x303db800000004
 .text          0x000000000019fe30       0xe8 E:/usr/local/sce/ee/lib/libgraph.a(graph008.o)
                0x000000000019fe30                sceGsPutDrawEnv
 .text          0x000000000019ff18      0x1e0 E:/usr/local/sce/ee/lib/libgraph.a(graph022.o)
                0x000000000019ff18                sceGsSetDefDrawEnv2
 .text          0x00000000001a00f8      0xacc E:/usr/local/sce/ee/lib/libdma.a(libdma.o)
                0x00000000001a09d0                sceDmaSync
                0x00000000001a08e0                sceDmaRecvI
                0x00000000001a0a98                sceDmaWatch
                0x00000000001a0728                sceDmaRecv
                0x00000000001a0558                sceDmaSendN
                0x00000000001a07f0                sceDmaRecvN
                0x00000000001a0bb0                sceDmaRestart
                0x00000000001a0158                sceDmaReset
                0x00000000001a0b68                sceDmaPause
                0x00000000001a0248                sceDmaPutEnv
                0x00000000001a0238                sceDmaDebug
                0x00000000001a0130                sceDmaGetChan
                0x00000000001a0640                sceDmaSendI
                0x00000000001a0480                sceDmaSend
                0x00000000001a0458                sceDmaPutStallAddr
                0x00000000001a0420                sceDmaGetEnv
 *fill*         0x00000000001a0bc4 0x303db800000004
 .text          0x00000000001a0bc8     0x13a8 E:/usr/local/sce/ee/lib/libpad.a(libpad.o)
                0x00000000001a1bf0                scePadInfoPressMode
                0x00000000001a1840                scePadSetMainMode
                0x00000000001a0f58                scePadPortOpen
                0x00000000001a1440                scePadGetReqState
                0x00000000001a18f8                scePadSetActDirect
                0x00000000001a1258                scePadGetFrameCount
                0x00000000001a14c8                scePadInfoAct
                0x00000000001a1328                scePadGetState
                0x00000000001a1708                scePadInfoMode
                0x00000000001a0cf8                scePadInit
                0x00000000001a1c50                scePadEnterPressMode
                0x00000000001a0ed8                scePadEnd
                0x00000000001a1490                scePadReqIntToStr
                0x00000000001a1e38                scePadGetSlotMax
                0x00000000001a1140                scePadPortClose
                0x00000000001a12a8                scePadRead
                0x00000000001a19b0                scePadSetActAlign
                0x00000000001a13a0                scePadStateIntToStr
                0x00000000001a1ca8                scePadExitPressMode
                0x00000000001a15e8                scePadInfoComb
                0x00000000001a1f08                scePadSetWarningLevel
 .text          0x00000000001a1f70       0xd4 E:/usr/local/sce/ee/gcc/lib/gcc-lib/ee\2.95.2\../../../../ee\lib\libm.a(sf_ceil.o)
                0x00000000001a1f70                ceilf
 *fill*         0x00000000001a2044 0x303db800000004
 .text          0x00000000001a2048       0xe8 E:/usr/local/sce/ee/gcc/lib/gcc-lib/ee\2.95.2\../../../../ee\lib\libm.a(sf_cos.o)
                0x00000000001a2048                cosf
 .text          0x00000000001a2130       0xe4 E:/usr/local/sce/ee/gcc/lib/gcc-lib/ee\2.95.2\../../../../ee\lib\libm.a(sf_floor.o)
                0x00000000001a2130                floorf
 *fill*         0x00000000001a2214 0x303db800000004
 .text          0x00000000001a2218       0xf0 E:/usr/local/sce/ee/gcc/lib/gcc-lib/ee\2.95.2\../../../../ee\lib\libm.a(sf_sin.o)
                0x00000000001a2218                sinf
 .text          0x00000000001a2308      0x430 E:/usr/local/sce/ee/gcc/lib/gcc-lib/ee\2.95.2\../../../../ee\lib\libm.a(w_pow.o)
                0x00000000001a2308                pow
 .text          0x00000000001a2738      0x10c E:/usr/local/sce/ee/gcc/lib/gcc-lib/ee\2.95.2\../../../../ee\lib\libm.a(w_sqrt.o)
                0x00000000001a2738                sqrt
 *fill*         0x00000000001a2844 0x303db800000004
 .text          0x00000000001a2848       0xfc E:/usr/local/sce/ee/gcc/lib/gcc-lib/ee\2.95.2\../../../../ee\lib\libm.a(wf_acos.o)
                0x00000000001a2848                acosf
 *fill*         0x00000000001a2944 0x303db800000004
 .text          0x00000000001a2948      0x128 E:/usr/local/sce/ee/gcc/lib/gcc-lib/ee\2.95.2\../../../../ee\lib\libm.a(wf_atan2.o)
                0x00000000001a2948                atan2f
 .text          0x00000000001a2a70      0x508 E:/usr/local/sce/ee/gcc/lib/gcc-lib/ee\2.95.2\../../../../ee\lib\libm.a(wf_pow.o)
                0x00000000001a2a70                powf
 .text          0x00000000001a2f78      0xd28 E:/usr/local/sce/ee/gcc/lib/gcc-lib/ee\2.95.2\../../../../ee\lib\libm.a(e_pow.o)
                0x00000000001a2f78                __ieee754_pow
 .text          0x00000000001a3ca0      0x304 E:/usr/local/sce/ee/gcc/lib/gcc-lib/ee\2.95.2\../../../../ee\lib\libm.a(e_sqrt.o)
                0x00000000001a3ca0                __ieee754_sqrt
 *fill*         0x00000000001a3fa4 0x303db800000004
 .text          0x00000000001a3fa8      0x430 E:/usr/local/sce/ee/gcc/lib/gcc-lib/ee\2.95.2\../../../../ee\lib\libm.a(ef_acos.o)
                0x00000000001a3fa8                __ieee754_acosf
 .text          0x00000000001a43d8      0x2e8 E:/usr/local/sce/ee/gcc/lib/gcc-lib/ee\2.95.2\../../../../ee\lib\libm.a(ef_atan2.o)
                0x00000000001a43d8                __ieee754_atan2f
 .text          0x00000000001a46c0      0x88c E:/usr/local/sce/ee/gcc/lib/gcc-lib/ee\2.95.2\../../../../ee\lib\libm.a(ef_pow.o)
                0x00000000001a46c0                __ieee754_powf
 *fill*         0x00000000001a4f4c 0x303db800000004
 .text          0x00000000001a4f50      0x3e0 E:/usr/local/sce/ee/gcc/lib/gcc-lib/ee\2.95.2\../../../../ee\lib\libm.a(ef_rem_pio2.o)
                0x00000000001a4f50                __ieee754_rem_pio2f
 .text          0x00000000001a5330      0x138 E:/usr/local/sce/ee/gcc/lib/gcc-lib/ee\2.95.2\../../../../ee\lib\libm.a(ef_sqrt.o)
                0x00000000001a5330                __ieee754_sqrtf
 .text          0x00000000001a5468      0x158 E:/usr/local/sce/ee/gcc/lib/gcc-lib/ee\2.95.2\../../../../ee\lib\libm.a(kf_cos.o)
                0x00000000001a5468                __kernel_cosf
 .text          0x00000000001a55c0      0x94c E:/usr/local/sce/ee/gcc/lib/gcc-lib/ee\2.95.2\../../../../ee\lib\libm.a(kf_rem_pio2.o)
                0x00000000001a55c0                __kernel_rem_pio2f
 *fill*         0x00000000001a5f0c 0x303db800000004
 .text          0x00000000001a5f10      0x104 E:/usr/local/sce/ee/gcc/lib/gcc-lib/ee\2.95.2\../../../../ee\lib\libm.a(kf_sin.o)
                0x00000000001a5f10                __kernel_sinf
 *fill*         0x00000000001a6014 0x303db800000004
 .text          0x00000000001a6018       0x34 E:/usr/local/sce/ee/gcc/lib/gcc-lib/ee\2.95.2\../../../../ee\lib\libm.a(s_fabs.o)
                0x00000000001a6018                fabs
 *fill*         0x00000000001a604c 0x303db800000004
 .text          0x00000000001a6050       0x20 E:/usr/local/sce/ee/gcc/lib/gcc-lib/ee\2.95.2\../../../../ee\lib\libm.a(s_finite.o)
                0x00000000001a6050                finite
 .text          0x00000000001a6070       0x38 E:/usr/local/sce/ee/gcc/lib/gcc-lib/ee\2.95.2\../../../../ee\lib\libm.a(s_isnan.o)
                0x00000000001a6070                isnan
 .text          0x00000000001a60a8       0x24 E:/usr/local/sce/ee/gcc/lib/gcc-lib/ee\2.95.2\../../../../ee\lib\libm.a(s_matherr.o)
                0x00000000001a60a8                matherr
 *fill*         0x00000000001a60cc 0x303db800000004
 .text          0x00000000001a60d0      0x1fc E:/usr/local/sce/ee/gcc/lib/gcc-lib/ee\2.95.2\../../../../ee\lib\libm.a(s_rint.o)
                0x00000000001a60d0                rint
 *fill*         0x00000000001a62cc 0x303db800000004
 .text          0x00000000001a62d0      0x1b4 E:/usr/local/sce/ee/gcc/lib/gcc-lib/ee\2.95.2\../../../../ee\lib\libm.a(s_scalbn.o)
                0x00000000001a62d0                scalbn
 *fill*         0x00000000001a6484 0x303db800000004
 .text          0x00000000001a6488      0x2a8 E:/usr/local/sce/ee/gcc/lib/gcc-lib/ee\2.95.2\../../../../ee\lib\libm.a(sf_atan.o)
                0x00000000001a6488                atanf
 .text          0x00000000001a6730       0x1c E:/usr/local/sce/ee/gcc/lib/gcc-lib/ee\2.95.2\../../../../ee\lib\libm.a(sf_fabs.o)
                0x00000000001a6730                fabsf
 *fill*         0x00000000001a674c 0x303db800000004
 .text          0x00000000001a6750       0x24 E:/usr/local/sce/ee/gcc/lib/gcc-lib/ee\2.95.2\../../../../ee\lib\libm.a(sf_finite.o)
                0x00000000001a6750                finitef
 *fill*         0x00000000001a6774 0x303db800000004
 .text          0x00000000001a6778       0x24 E:/usr/local/sce/ee/gcc/lib/gcc-lib/ee\2.95.2\../../../../ee\lib\libm.a(sf_isnan.o)
                0x00000000001a6778                isnanf
 *fill*         0x00000000001a679c 0x303db800000004
 .text          0x00000000001a67a0      0x160 E:/usr/local/sce/ee/gcc/lib/gcc-lib/ee\2.95.2\../../../../ee\lib\libm.a(sf_scalbn.o)
                0x00000000001a67a0                scalbnf
 .text          0x00000000001a6900       0x44 E:/usr/local/sce/ee/gcc/lib/gcc-lib/ee\2.95.2\../../../../ee\lib\libm.a(s_copysign.o)
                0x00000000001a6900                copysign
 *fill*         0x00000000001a6944 0x303db800000004
 .text          0x00000000001a6948       0x30 E:/usr/local/sce/ee/gcc/lib/gcc-lib/ee\2.95.2\../../../../ee\lib\libm.a(sf_copysign.o)
                0x00000000001a6948                copysignf
 .text          0x00000000001a6978      0x128 E:/usr/local/sce/ee/gcc/lib/gcc-lib/ee\2.95.2\libgcc.a(__main.o)
                0x00000000001a6a80                __main
                0x00000000001a6978                __do_global_dtors
                0x00000000001a69d0                __do_global_ctors
 .text          0x00000000001a6aa0       0x5c E:/usr/local/sce/ee/gcc/lib/gcc-lib/ee\2.95.2\libgcc.a(_fixdfdi.o)
                0x00000000001a6aa0                __fixdfdi
 *fill*         0x00000000001a6afc 0x303db800000004
 .text          0x00000000001a6b00       0xec E:/usr/local/sce/ee/gcc/lib/gcc-lib/ee\2.95.2\libgcc.a(_fixunsdfdi.o)
                0x00000000001a6b00                __fixunsdfdi
 *fill*         0x00000000001a6bec 0x303db800000004
 .text          0x00000000001a6bf0       0x98 E:/usr/local/sce/ee/gcc/lib/gcc-lib/ee\2.95.2\libgcc.a(_floatdidf.o)
                0x00000000001a6bf0                __floatdidf
 .text          0x00000000001a6c88       0xe0 E:/usr/local/sce/ee/gcc/lib/gcc-lib/ee\2.95.2\libgcc.a(_floatdisf.o)
                0x00000000001a6c88                __floatdisf
 .text          0x00000000001a6d68       0x60 E:/usr/local/sce/ee/gcc/lib/gcc-lib/ee\2.95.2\libgcc.a(_muldi3.o)
                0x00000000001a6d68                __muldi3
 .text          0x00000000001a6dc8      0x5d0 E:/usr/local/sce/ee/gcc/lib/gcc-lib/ee\2.95.2\libgcc.a(_udivdi3.o)
                0x00000000001a6dc8                __udivdi3
 .text          0x00000000001a7398      0x540 E:/usr/local/sce/ee/gcc/lib/gcc-lib/ee\2.95.2\libgcc.a(_umoddi3.o)
                0x00000000001a7398                __umoddi3
 .text          0x00000000001a78d8      0xcf4 E:/usr/local/sce/ee/gcc/lib/gcc-lib/ee\2.95.2\libgcc.a(dp-bit.o)
                0x00000000001a8548                __make_dp
                0x00000000001a7d40                dpsub
                0x00000000001a7da8                dpmul
                0x00000000001a8578                dptofp
                0x00000000001a82d0                dpcmp
                0x00000000001a7a08                __unpack_d
                0x00000000001a8470                dptoul
                0x00000000001a8050                dpdiv
                0x00000000001a8320                litodp
                0x00000000001a81b8                __fpcmp_parts_d
                0x00000000001a8510                __negdf2
                0x00000000001a7ce8                dpadd
                0x00000000001a83d8                dptoli
                0x00000000001a78d8                __pack_d
 *fill*         0x00000000001a85cc 0x303db800000004
 .text          0x00000000001a85d0      0xbe0 E:/usr/local/sce/ee/gcc/lib/gcc-lib/ee\2.95.2\libgcc.a(fp-bit.o)
                0x00000000001a8f28                sitofp
                0x00000000001a8c60                fpdiv
                0x00000000001a9140                __make_fp
                0x00000000001a86e0                __unpack_f
                0x00000000001a9070                fptoui
                0x00000000001a85d0                __pack_f
                0x00000000001a9170                fptodp
                0x00000000001a8fe0                fptosi
                0x00000000001a89a8                fpadd
                0x00000000001a9108                __negsf2
                0x00000000001a8a00                fpsub
                0x00000000001a8ed8                fpcmp
                0x00000000001a8a68                fpmul
                0x00000000001a8dc0                __fpcmp_parts_f
 .text          0x00000000001a91b0       0x2c E:/usr/local/sce/ee/gcc/lib/gcc-lib/ee\2.95.2\../../../../ee\lib\libc.a(calloc.o)
                0x00000000001a91b0                calloc
 *fill*         0x00000000001a91dc 0x303db800000004
 .text          0x00000000001a91e0       0xbc E:/usr/local/sce/ee/gcc/lib/gcc-lib/ee\2.95.2\../../../../ee\lib\libc.a(callocr.o)
                0x00000000001a91e0                _calloc_r
 *fill*         0x00000000001a929c 0x303db800000004
 .text          0x00000000001a92a0        0xc E:/usr/local/sce/ee/gcc/lib/gcc-lib/ee\2.95.2\../../../../ee\lib\libc.a(errno.o)
                0x00000000001a92a0                __errno
 *fill*         0x00000000001a92ac 0x303db800000004
 .text          0x00000000001a92b0      0x104 E:/usr/local/sce/ee/gcc/lib/gcc-lib/ee\2.95.2\../../../../ee\lib\libc.a(fclose.o)
                0x00000000001a92b0                fclose
 *fill*         0x00000000001a93b4 0x303db800000004
 .text          0x00000000001a93b8       0x10 E:/usr/local/sce/ee/gcc/lib/gcc-lib/ee\2.95.2\../../../../ee\lib\libc.a(feof.o)
                0x00000000001a93b8                feof
 .text          0x00000000001a93c8      0x104 E:/usr/local/sce/ee/gcc/lib/gcc-lib/ee\2.95.2\../../../../ee\lib\libc.a(fflush.o)
                0x00000000001a93c8                fflush
 *fill*         0x00000000001a94cc 0x303db800000004
 .text          0x00000000001a94d0      0x128 E:/usr/local/sce/ee/gcc/lib/gcc-lib/ee\2.95.2\../../../../ee\lib\libc.a(fgets.o)
                0x00000000001a94d0                fgets
 .text          0x00000000001a95f8      0x254 E:/usr/local/sce/ee/gcc/lib/gcc-lib/ee\2.95.2\../../../../ee\lib\libc.a(findfp.o)
                0x00000000001a97c0                __sinit
                0x00000000001a9650                __sfmoreglue
                0x00000000001a97b0                _cleanup
                0x00000000001a97a0                _cleanup_r
                0x00000000001a96c0                __sfp
 *fill*         0x00000000001a984c 0x303db800000004
 .text          0x00000000001a9850      0x10c E:/usr/local/sce/ee/gcc/lib/gcc-lib/ee\2.95.2\../../../../ee\lib\libc.a(fopen.o)
                0x00000000001a9930                fopen
                0x00000000001a9850                _fopen_r
 *fill*         0x00000000001a995c 0x303db800000004
 .text          0x00000000001a9960       0x50 E:/usr/local/sce/ee/gcc/lib/gcc-lib/ee\2.95.2\../../../../ee\lib\libc.a(fputs.o)
                0x00000000001a9960                fputs
 .text          0x00000000001a99b0      0x11c E:/usr/local/sce/ee/gcc/lib/gcc-lib/ee\2.95.2\../../../../ee\lib\libc.a(fread.o)
                0x00000000001a99b0                fread
 *fill*         0x00000000001a9acc 0x303db800000004
 .text          0x00000000001a9ad0      0x48c E:/usr/local/sce/ee/gcc/lib/gcc-lib/ee\2.95.2\../../../../ee\lib\libc.a(freer.o)
                0x00000000001a9ad0                _free_r
                0x00000000001a9df0                _malloc_trim_r
 *fill*         0x00000000001a9f5c 0x303db800000004
 .text          0x00000000001a9f60      0x48c E:/usr/local/sce/ee/gcc/lib/gcc-lib/ee\2.95.2\../../../../ee\lib\libc.a(fseek.o)
                0x00000000001a9f60                fseek
 *fill*         0x00000000001aa3ec 0x303db800000004
 .text          0x00000000001aa3f0       0x5c E:/usr/local/sce/ee/gcc/lib/gcc-lib/ee\2.95.2\../../../../ee\lib\libc.a(fstatr.o)
                0x00000000001aa3f0                _fstat_r
 *fill*         0x00000000001aa44c 0x303db800000004
 .text          0x00000000001aa450       0xfc E:/usr/local/sce/ee/gcc/lib/gcc-lib/ee\2.95.2\../../../../ee\lib\libc.a(ftell.o)
                0x00000000001aa450                ftell
 *fill*         0x00000000001aa54c 0x303db800000004
 .text          0x00000000001aa550      0x3d8 E:/usr/local/sce/ee/gcc/lib/gcc-lib/ee\2.95.2\../../../../ee\lib\libc.a(fvwrite.o)
                0x00000000001aa550                __sfvwrite
 .text          0x00000000001aa928       0x94 E:/usr/local/sce/ee/gcc/lib/gcc-lib/ee\2.95.2\../../../../ee\lib\libc.a(fwalk.o)
                0x00000000001aa928                _fwalk
 *fill*         0x00000000001aa9bc 0x303db800000004
 .text          0x00000000001aa9c0       0x84 E:/usr/local/sce/ee/gcc/lib/gcc-lib/ee\2.95.2\../../../../ee\lib\libc.a(fwrite.o)
                0x00000000001aa9c0                fwrite
 *fill*         0x00000000001aaa44 0x303db800000004
 .text          0x00000000001aaa48      0x150 E:/usr/local/sce/ee/gcc/lib/gcc-lib/ee\2.95.2\../../../../ee\lib\libc.a(makebuf.o)
                0x00000000001aaa48                __smakebuf
 .text          0x00000000001aab98       0x38 E:/usr/local/sce/ee/gcc/lib/gcc-lib/ee\2.95.2\../../../../ee\lib\libc.a(malloc.o)
                0x00000000001aab98                malloc
                0x00000000001aabc0                free
 .text          0x00000000001aabd0      0x9d0 E:/usr/local/sce/ee/gcc/lib/gcc-lib/ee\2.95.2\../../../../ee\lib\libc.a(mallocr.o)
                0x00000000001aae28                _malloc_r
 .text          0x00000000001ab5a0       0xe0 E:/usr/local/sce/ee/gcc/lib/gcc-lib/ee\2.95.2\../../../../ee\lib\libc.a(memchr.o)
                0x00000000001ab5a0                memchr
 .text          0x00000000001ab680       0x94 E:/usr/local/sce/ee/gcc/lib/gcc-lib/ee\2.95.2\../../../../ee\lib\libc.a(memcmp.o)
                0x00000000001ab680                memcmp
 .text          0x00000000001ab714       0xb0 E:/usr/local/sce/ee/gcc/lib/gcc-lib/ee\2.95.2\../../../../ee\lib\libc.a(memcpy.o)
                0x00000000001ab714                memcpy
 .text          0x00000000001ab7c4      0x104 E:/usr/local/sce/ee/gcc/lib/gcc-lib/ee\2.95.2\../../../../ee\lib\libc.a(memmove.o)
                0x00000000001ab7c4                memmove
 .text          0x00000000001ab8c8       0xc0 E:/usr/local/sce/ee/gcc/lib/gcc-lib/ee\2.95.2\../../../../ee\lib\libc.a(memset.o)
                0x00000000001ab8c8                memset
 .text          0x00000000001ab988       0x10 E:/usr/local/sce/ee/gcc/lib/gcc-lib/ee\2.95.2\../../../../ee\lib\libc.a(mlock.o)
                0x00000000001ab990                __malloc_unlock
                0x00000000001ab988                __malloc_lock
 .text          0x00000000001ab998       0x60 E:/usr/local/sce/ee/gcc/lib/gcc-lib/ee\2.95.2\../../../../ee\lib\libc.a(openr.o)
                0x00000000001ab998                _open_r
 .text          0x00000000001ab9f8       0x90 E:/usr/local/sce/ee/gcc/lib/gcc-lib/ee\2.95.2\../../../../ee\lib\libc.a(printf.o)
                0x00000000001aba38                printf
                0x00000000001ab9f8                _printf_r
 .text          0x00000000001aba88      0xa24 E:/usr/local/sce/ee/gcc/lib/gcc-lib/ee\2.95.2\../../../../ee\lib\libc.a(qsort.o)
                0x00000000001aba88                qsort
 *fill*         0x00000000001ac4ac 0x303db800000004
 .text          0x00000000001ac4b0       0x2c E:/usr/local/sce/ee/gcc/lib/gcc-lib/ee\2.95.2\../../../../ee\lib\libc.a(realloc.o)
                0x00000000001ac4b0                realloc
 *fill*         0x00000000001ac4dc 0x303db800000004
 .text          0x00000000001ac4e0      0x570 E:/usr/local/sce/ee/gcc/lib/gcc-lib/ee\2.95.2\../../../../ee\lib\libc.a(reallocr.o)
                0x00000000001ac4e0                _realloc_r
 .text          0x00000000001aca50      0x198 E:/usr/local/sce/ee/gcc/lib/gcc-lib/ee\2.95.2\../../../../ee\lib\libc.a(refill.o)
                0x00000000001aca70                __srefill
 .text          0x00000000001acbe8       0x5c E:/usr/local/sce/ee/gcc/lib/gcc-lib/ee\2.95.2\../../../../ee\lib\libc.a(sbrkr.o)
                0x00000000001acbe8                _sbrk_r
 .text          0x00000000001acc44       0x7c E:/usr/local/sce/ee/gcc/lib/gcc-lib/ee\2.95.2\../../../../ee\lib\libc.a(setjmp.o)
                0x00000000001acc7c                longjmp
                0x00000000001acc44                setjmp
 .text          0x00000000001accc0       0xd8 E:/usr/local/sce/ee/gcc/lib/gcc-lib/ee\2.95.2\../../../../ee\lib\libc.a(sprintf.o)
                0x00000000001accc0                _sprintf_r
                0x00000000001acd28                sprintf
 .text          0x00000000001acd98       0x90 E:/usr/local/sce/ee/gcc/lib/gcc-lib/ee\2.95.2\../../../../ee\lib\libc.a(sscanf.o)
                0x00000000001acda0                sscanf
 .text          0x00000000001ace28      0x170 E:/usr/local/sce/ee/gcc/lib/gcc-lib/ee\2.95.2\../../../../ee\lib\libc.a(stdio.o)
                0x00000000001acf10                __sseek
                0x00000000001ace28                __sread
                0x00000000001acf78                __sclose
                0x00000000001ace90                __swrite
 .text          0x00000000001acf98      0x12c E:/usr/local/sce/ee/gcc/lib/gcc-lib/ee\2.95.2\../../../../ee\lib\libc.a(strcat.o)
                0x00000000001acf98                strcat
 .text          0x00000000001ad0c4      0x190 E:/usr/local/sce/ee/gcc/lib/gcc-lib/ee\2.95.2\../../../../ee\lib\libc.a(strchr.o)
                0x00000000001ad0c4                strchr
 .text          0x00000000001ad254      0x144 E:/usr/local/sce/ee/gcc/lib/gcc-lib/ee\2.95.2\../../../../ee\lib\libc.a(strcmp.o)
                0x00000000001ad254                strcmp
 .text          0x00000000001ad398      0x114 E:/usr/local/sce/ee/gcc/lib/gcc-lib/ee\2.95.2\../../../../ee\lib\libc.a(strcpy.o)
                0x00000000001ad398                strcpy
 *fill*         0x00000000001ad4ac 0x303db800000004
 .text          0x00000000001ad4b0       0x28 E:/usr/local/sce/ee/gcc/lib/gcc-lib/ee\2.95.2\../../../../ee\lib\libc.a(strdup.o)
                0x00000000001ad4b0                strdup
 .text          0x00000000001ad4d8       0x68 E:/usr/local/sce/ee/gcc/lib/gcc-lib/ee\2.95.2\../../../../ee\lib\libc.a(strdup_r.o)
                0x00000000001ad4d8                _strdup_r
 .text          0x00000000001ad540      0x138 E:/usr/local/sce/ee/gcc/lib/gcc-lib/ee\2.95.2\../../../../ee\lib\libc.a(strlen.o)
                0x00000000001ad540                strlen
 .text          0x00000000001ad678      0x1ac E:/usr/local/sce/ee/gcc/lib/gcc-lib/ee\2.95.2\../../../../ee\lib\libc.a(strncat.o)
                0x00000000001ad678                strncat
 *fill*         0x00000000001ad824 0x303db800000004
 .text          0x00000000001ad828      0x1bc E:/usr/local/sce/ee/gcc/lib/gcc-lib/ee\2.95.2\../../../../ee\lib\libc.a(strncpy.o)
                0x00000000001ad828                strncpy
 *fill*         0x00000000001ad9e4 0x303db800000004
 .text          0x00000000001ad9e8       0x50 E:/usr/local/sce/ee/gcc/lib/gcc-lib/ee\2.95.2\../../../../ee\lib\libc.a(strrchr.o)
                0x00000000001ad9e8                strrchr
 .text          0x00000000001ada38       0x6c E:/usr/local/sce/ee/gcc/lib/gcc-lib/ee\2.95.2\../../../../ee\lib\libc.a(strstr.o)
                0x00000000001ada38                strstr
 *fill*         0x00000000001adaa4 0x303db800000004
 .text          0x00000000001adaa8      0xf54 E:/usr/local/sce/ee/gcc/lib/gcc-lib/ee\2.95.2\../../../../ee\lib\libc.a(strtod.o)
                0x00000000001adaa8                _strtod_r
                0x00000000001ae9d8                strtodf
                0x00000000001ae9a8                strtod
 *fill*         0x00000000001ae9fc 0x303db800000004
 .text          0x00000000001aea00       0x24 E:/usr/local/sce/ee/gcc/lib/gcc-lib/ee\2.95.2\../../../../ee\lib\libc.a(strtok.o)
                0x00000000001aea00                strtok
 *fill*         0x00000000001aea24 0x303db800000004
 .text          0x00000000001aea28       0x9c E:/usr/local/sce/ee/gcc/lib/gcc-lib/ee\2.95.2\../../../../ee\lib\libc.a(strtok_r.o)
                0x00000000001aea28                strtok_r
 *fill*         0x00000000001aeac4 0x303db800000004
 .text          0x00000000001aeac8     0x1920 E:/usr/local/sce/ee/gcc/lib/gcc-lib/ee\2.95.2\../../../../ee\lib\libc.a(vfprintf.o)
                0x00000000001aec40                _vfprintf_r
                0x00000000001aebc8                vfprintf
 .text          0x00000000001b03e8      0xc0c E:/usr/local/sce/ee/gcc/lib/gcc-lib/ee\2.95.2\../../../../ee\lib\libc.a(vfscanf.o)
                0x00000000001b03e8                __svfscanf
                0x00000000001b0ef0                __sccl
 *fill*         0x00000000001b0ff4 0x303db800000004
 .text          0x00000000001b0ff8       0x54 E:/usr/local/sce/ee/gcc/lib/gcc-lib/ee\2.95.2\../../../../ee\lib\libc.a(vsprintf.o)
                0x00000000001b0ff8                vsprintf
 *fill*         0x00000000001b104c 0x303db800000004
 .text          0x00000000001b1050       0x60 E:/usr/local/sce/ee/gcc/lib/gcc-lib/ee\2.95.2\../../../../ee\lib\libc.a(writer.o)
                0x00000000001b1050                _write_r
 .text          0x00000000001b10b0      0x10c E:/usr/local/sce/ee/gcc/lib/gcc-lib/ee\2.95.2\../../../../ee\lib\libc.a(wsetup.o)
                0x00000000001b10b0                __swsetup
 *fill*         0x00000000001b11bc 0x303db800000004
 .text          0x00000000001b11c0       0x1c E:/usr/local/sce/ee/gcc/lib/gcc-lib/ee\2.95.2\../../../../ee\lib\libc.a(atof.o)
                0x00000000001b11c0                atof
 *fill*         0x00000000001b11dc 0x303db800000004
 .text          0x00000000001b11e0       0x58 E:/usr/local/sce/ee/gcc/lib/gcc-lib/ee\2.95.2\../../../../ee\lib\libc.a(closer.o)
                0x00000000001b11e0                _close_r
 .text          0x00000000001b1238     0x13e4 E:/usr/local/sce/ee/gcc/lib/gcc-lib/ee\2.95.2\../../../../ee\lib\libc.a(dtoa.o)
                0x00000000001b1450                _dtoa_r
 *fill*         0x00000000001b261c 0x303db800000004
 .text          0x00000000001b2620       0xa8 E:/usr/local/sce/ee/gcc/lib/gcc-lib/ee\2.95.2\../../../../ee\lib\libc.a(flags.o)
                0x00000000001b2620                __sflags
 .text          0x00000000001b26c8       0xec E:/usr/local/sce/ee/gcc/lib/gcc-lib/ee\2.95.2\../../../../ee\lib\libc.a(locale.o)
                0x00000000001b26c8                _setlocale_r
                0x00000000001b2750                _localeconv_r
                0x00000000001b2760                setlocale
                0x00000000001b2790                localeconv
 *fill*         0x00000000001b27b4 0x303db800000004
 .text          0x00000000001b27b8       0x60 E:/usr/local/sce/ee/gcc/lib/gcc-lib/ee\2.95.2\../../../../ee\lib\libc.a(lseekr.o)
                0x00000000001b27b8                _lseek_r
 .text          0x00000000001b2818       0x3c E:/usr/local/sce/ee/gcc/lib/gcc-lib/ee\2.95.2\../../../../ee\lib\libc.a(mbtowc_r.o)
                0x00000000001b2818                _mbtowc_r
 *fill*         0x00000000001b2854 0x303db800000004
 .text          0x00000000001b2858     0x101c E:/usr/local/sce/ee/gcc/lib/gcc-lib/ee\2.95.2\../../../../ee\lib\libc.a(mprec.o)
                0x00000000001b3808                _mprec_log10
                0x00000000001b2b90                _hi0bits
                0x00000000001b2858                _Balloc
                0x00000000001b35c8                _d2b
                0x00000000001b2d10                _multiply
                0x00000000001b3748                _ratio
                0x00000000001b2a48                _s2b
                0x00000000001b2cd8                _i2b
                0x00000000001b2c18                _lo0bits
                0x00000000001b31b8                __mcmp
                0x00000000001b2f40                _pow5mult
                0x00000000001b33b0                _ulp
                0x00000000001b3448                _b2d
                0x00000000001b2930                _multadd
                0x00000000001b3220                __mdiff
                0x00000000001b3040                _lshift
                0x00000000001b2900                _Bfree
 *fill*         0x00000000001b3874 0x303db800000004
 .text          0x00000000001b3878       0x60 E:/usr/local/sce/ee/gcc/lib/gcc-lib/ee\2.95.2\../../../../ee\lib\libc.a(readr.o)
                0x00000000001b3878                _read_r
 .text          0x00000000001b38d8       0x48 E:/usr/local/sce/ee/gcc/lib/gcc-lib/ee\2.95.2\../../../../ee\lib\libc.a(s_isinf.o)
                0x00000000001b38d8                isinf
 .text          0x00000000001b3920      0x26c E:/usr/local/sce/ee/gcc/lib/gcc-lib/ee\2.95.2\../../../../ee\lib\libc.a(strtol.o)
                0x00000000001b3b58                strtol
                0x00000000001b3920                _strtol_r
 *fill*         0x00000000001b3b8c 0x303db800000004
 .text          0x00000000001b3b90      0x254 E:/usr/local/sce/ee/gcc/lib/gcc-lib/ee\2.95.2\../../../../ee\lib\libc.a(strtoul.o)
                0x00000000001b3db0                strtoul
                0x00000000001b3b90                _strtoul_r
 *fill*         0x00000000001b3de4 0x303db800000004
 .text          0x00000000001b3de8      0x278 E:/usr/local/sce/ee/gcc/lib/gcc-lib/ee\2.95.2\../../../../ee\lib\libc.a(ungetc.o)
                0x00000000001b3ed8                ungetc
                0x00000000001b3de8                __submore
 *fill*         0x00000000001b4060 0x303db800000020
 .text          0x00000000001b4080      0x890 E:/usr/local/sce/ee/lib\libkernl.a(klib.o)
                0x00000000001b41e0                _EnableIntc
                0x00000000001b41a0                RemoveIntcHandler
                0x00000000001b47d0                iGsGetIMR
                0x00000000001b45d0                RFU083_iSetEventFlag
                0x00000000001b4110                RFU009
                0x00000000001b4640                RFU090_iReferEventFlagStatus
                0x00000000001b4280                iSetAlarm
                0x00000000001b4510                ReferSemaStatus
                0x00000000001b43b0                iReferThreadStatus
                0x00000000001b45c0                RFU082_SetEventFlag
                0x00000000001b4740                iGetCop0
                0x00000000001b48b0                sceSifGetReg
                0x00000000001b4570                GetGsVParam
                0x00000000001b4650                RFU091
                0x00000000001b45b0                RFU081_DeleteEventFlag
                0x00000000001b41b0                AddDmacHandler
                0x00000000001b4300                iTerminateThread
                0x00000000001b46a0                EnableDmacHandler
                0x00000000001b44a0                CreateSema
                0x00000000001b4520                iReferSemaStatus
                0x00000000001b4160                SetVCommonHandler
                0x00000000001b46c0                DisableDmacHandler
                0x00000000001b4320                EnableDispatchThread
                0x00000000001b4790                SetCPUTimer
                0x00000000001b4080                RFU000_FullReset
                0x00000000001b4780                SetCPUTimerHandler
                0x00000000001b4310                DisableDispatchThread
                0x00000000001b4120                AddSbusIntcHandler
                0x00000000001b48a0                sceSifSetReg
                0x00000000001b48d0                Deci2Call
                0x00000000001b4230                ReleaseAlarm
                0x00000000001b47a0                SetOsdConfigParam2
                0x00000000001b4270                _iDisableDmac
                0x00000000001b4870                isceSifSetDma
                0x00000000001b43e0                _iWakeupThread
                0x00000000001b4530                RFU073
                0x00000000001b4550                GetOsdConfigParam
                0x00000000001b4220                SetAlarm
                0x00000000001b4770                sceSifStopDma
                0x00000000001b4540                SetOsdConfigParam
                0x00000000001b4700                DisableCache
                0x00000000001b4560                GetGsHParam
                0x00000000001b45a0                RFU080_CreateEventFlag
                0x00000000001b4400                iCancelWakeupThread
                0x00000000001b42d0                ExitThread
                0x00000000001b4670                iEnableIntcHandler
                0x00000000001b45e0                RFU084_ClearEventFlag
                0x00000000001b4860                sceSifSetDma
                0x00000000001b4370                ReleaseWaitThread
                0x00000000001b4680                DisableIntcHandler
                0x00000000001b4340                iChangeThreadPriority
                0x00000000001b4580                SetGsHParam
                0x00000000001b46e0                KSeg0
                0x00000000001b41f0                _DisableIntc
                0x00000000001b4810                SetVSyncFlag
                0x00000000001b4630                RFU089_ReferEventFlagStatus
                0x00000000001b47e0                GsPutIMR
                0x00000000001b4840                sceSifDmaStat
                0x00000000001b4710                GetCop0
                0x00000000001b40c0                Exit
                0x00000000001b4880                sceSifSetDChain
                0x00000000001b47c0                GsGetIMR
                0x00000000001b4380                iReleaseWaitThread
                0x00000000001b4390                GetThreadId
                0x00000000001b4170                SetVInterruptHandler
                0x00000000001b40e0                LoadExecPS2
                0x00000000001b4200                _EnableDmac
                0x00000000001b4610                RFU087_PollEvnetFlag
                0x00000000001b4490                RFU063
                0x00000000001b48c0                ExecOSD
                0x00000000001b4720                FlushCache
                0x00000000001b48e0                PSMode
                0x00000000001b40d0                RFU005
                0x00000000001b4210                _DisableDmac
                0x00000000001b41c0                AddDmacHandler2
                0x00000000001b48f0                MachineType
                0x00000000001b4470                RFU061
                0x00000000001b4430                ResumeThread
                0x00000000001b4150                SetVTLBRefillHandler
                0x00000000001b4590                SetGsVParam
                0x00000000001b44d0                iSignalSema
                0x00000000001b4480                EndOfHeap
                0x00000000001b4260                _iEnableDmac
                0x00000000001b47b0                GetOsdConfigParam2
                0x00000000001b4820                RFU116
                0x00000000001b4180                AddIntcHandler
                0x00000000001b4440                iResumeThread
                0x00000000001b4500                iPollSema
                0x00000000001b4660                EnableIntcHandler
                0x00000000001b4100                RFU008
                0x00000000001b4360                _iRotateThreadReadyQueue
                0x00000000001b43a0                ReferThreadStatus
                0x00000000001b43f0                CancelWakeupThread
                0x00000000001b4330                ChangeThreadPriority
                0x00000000001b40a0                SetGsCrt
                0x00000000001b4140                Interrupt2Iop
                0x00000000001b47f0                iGsPutIMR
                0x00000000001b40f0                ExecPS2
                0x00000000001b41d0                RemoveDmacHandler
                0x00000000001b4090                ResetEE
                0x00000000001b4850                isceSifDmaStat
                0x00000000001b44c0                SignalSema
                0x00000000001b45f0                RFU085_iClearEventFlag
                0x00000000001b4760                iCpuConfig
                0x00000000001b4240                _iEnableIntc
                0x00000000001b44f0                PollSema
                0x00000000001b4460                RFU060
                0x00000000001b4890                isceSifSetDChain
                0x00000000001b46b0                iEnableDmacHandler
                0x00000000001b43d0                WakeupThread
                0x00000000001b42f0                TerminateThread
                0x00000000001b4420                _iSuspendThread
                0x00000000001b46f0                EnableCache
                0x00000000001b42b0                DeleteThread
                0x00000000001b4900                GetMemorySize
                0x00000000001b44e0                WaitSema
                0x00000000001b4190                AddIntcHandler2
                0x00000000001b4830                _print
                0x00000000001b4620                RFU088_iPollEvnetFlag
                0x00000000001b4350                RotateThreadReadyQueue
                0x00000000001b43c0                SleepThread
                0x00000000001b4750                iFlushCache
                0x00000000001b40b0                RFU003
                0x00000000001b44b0                DeleteSema
                0x00000000001b42a0                CreateThread
                0x00000000001b4600                RFU086_WaitEvnetFlag
                0x00000000001b4250                _iDisableIntc
                0x00000000001b4690                iDisableIntcHandler
                0x00000000001b4130                RemoveSbusIntcHandler
                0x00000000001b4410                SuspendThread
                0x00000000001b4450                JoinThread
                0x00000000001b4800                SetPgifHandler
                0x00000000001b4730                CpuConfig
                0x00000000001b42e0                ExitDeleteThread
                0x00000000001b4290                iReleaseAlarm
                0x00000000001b46d0                iDisableDmacHandler
                0x00000000001b42c0                StartThread
 .text          0x00000000001b4910      0x338 E:/usr/local/sce/ee/lib\libkernl.a(glue.o)
                0x00000000001b4ae8                ioctl
                0x00000000001b4910                sceResetttyinit
                0x00000000001b4bc8                getpid
                0x00000000001b4ba8                isatty
                0x00000000001b4af0                lseek
                0x00000000001b49c0                write
                0x00000000001b4bb0                fstat
                0x00000000001b4bd0                kill
                0x00000000001b4a40                read
                0x00000000001b4c20                unlink
                0x00000000001b4960                VSync2
                0x00000000001b4af8                sbrk
                0x00000000001b4920                VSync
                0x00000000001b4bf8                stat
                0x00000000001b4ab8                open
                0x00000000001b4ae0                close
 .text          0x00000000001b4c48      0x27c E:/usr/local/sce/ee/lib\libkernl.a(cache.o)
                0x00000000001b4cf0                SyncDCache
                0x00000000001b4e30                InvalidDCache
                0x00000000001b4c48                _sceSDC
                0x00000000001b4eb0                iInvalidDCache
                0x00000000001b4d70                iSyncDCache
                0x00000000001b4d88                _sceIDC
 *fill*         0x00000000001b4ec4 0x303db800000004
 .text          0x00000000001b4ec8      0x35c E:/usr/local/sce/ee/lib\libkernl.a(intr.o)
                0x00000000001b4f98                DisableDmac
                0x00000000001b4ec8                DisableIntc
                0x00000000001b5068                iEnableIntc
                0x00000000001b5088                iDisableIntc
                0x00000000001b50c8                iDisableDmac
                0x00000000001b4f30                EnableIntc
                0x00000000001b5150                InitAlarm
                0x00000000001b50a8                iEnableDmac
                0x00000000001b5000                EnableDmac
 *fill*         0x00000000001b5224 0x303db800000004
 .text          0x00000000001b5228      0x51c E:/usr/local/sce/ee/lib\libkernl.a(tty.o)
                0x00000000001b5688                sceTtyInit
                0x00000000001b5468                sceTtyWrite
                0x00000000001b55b8                sceTtyRead
 *fill*         0x00000000001b5744 0x303db800000004
 .text          0x00000000001b5748      0x978 E:/usr/local/sce/ee/lib\libkernl.a(kprintf.o)
                0x00000000001b6060                scePrintf
                0x00000000001b6028                kprintf
                0x00000000001b5a60                _printf
 .text          0x00000000001b60c0      0xf60 E:/usr/local/sce/ee/lib\libkernl.a(sifrpc.o)
                0x00000000001b6af0                sceSifCheckStatRpc
                0x00000000001b6c98                sceSifRemoveRpc
                0x00000000001b6dc0                sceSifGetNextRequest
                0x00000000001b6730                sceSifBindRpc
                0x00000000001b60c0                sceSifInitRpc
                0x00000000001b6900                sceSifCallRpc
                0x00000000001b6bc8                sceSifRegisterRpc
                0x00000000001b6b30                sceSifSetRpcQueue
                0x00000000001b6260                sceSifExitRpc
                0x00000000001b6e18                sceSifExecRequest
                0x00000000001b64d8                sceSifGetOtherData
                0x00000000001b6d30                sceSifRemoveRpcQueue
                0x00000000001b6fe0                sceSifRpcLoop
 .text          0x00000000001b7020     0x3578 E:/usr/local/sce/ee/lib\libkernl.a(filestub.o)
                0x00000000001b9218                sceDread
                0x00000000001b8a70                sceRemove
                0x00000000001b7830                sceOpen
                0x00000000001b7ab8                sceClose
                0x00000000001b9d68                sceUmount
                0x00000000001b7c38                sceLseek
                0x00000000001b83a0                sceIoctl
                0x00000000001b9fc0                sceDevctl
                0x00000000001b9d88                sceLseek64
                0x00000000001ba1f0                sceSymlink
                0x00000000001b77f8                sceFsReset
                0x00000000001b9750                sceRename
                0x00000000001b9960                sceSync
                0x00000000001b8c40                sceRmdir
                0x00000000001ba3d0                sceReadlink
                0x00000000001b9010                sceDopen
                0x00000000001b90b0                sceDclose
                0x00000000001b86f0                sceIoctl2
                0x00000000001b75c8                sceFsInit
                0x00000000001b8ff0                sceDelDrv
                0x00000000001b80e0                sceWrite
                0x00000000001b9370                sceGetstat
                0x00000000001b7e70                sceRead
                0x00000000001b9510                sceChstat
                0x00000000001b8c60                sceFormat
                0x00000000001b9940                sceChdir
                0x00000000001b9af8                sceMount
                0x00000000001b8a90                sceMkdir
                0x00000000001b8ed0                sceAddDrv
 .text          0x00000000001ba598      0x300 E:/usr/local/sce/ee/lib\libkernl.a(iopheap.o)
                0x00000000001ba710                sceSifFreeSysMemory
                0x00000000001ba788                sceSifFreeIopHeap
                0x00000000001ba598                sceSifInitIopHeap
                0x00000000001ba690                sceSifAllocSysMemory
                0x00000000001ba7a8                sceSifLoadIopHeap
                0x00000000001ba620                sceSifAllocIopHeap
 .text          0x00000000001ba898      0xd5c E:/usr/local/sce/ee/lib\libkernl.a(eeloadfile.o)
                0x00000000001bafa0                sceSifSearchModuleByAddress
                0x00000000001bae70                sceSifUnloadModule
                0x00000000001bb518                sceSifSetIopAddr
                0x00000000001bac68                sceSifStopModule
                0x00000000001bb428                sceSifGetIopAddr
                0x00000000001baf00                sceSifSearchModuleByName
                0x00000000001bb400                sceSifLoadElf
                0x00000000001bb050                sceSifLoadStartModuleBuffer
                0x00000000001bb2b8                sceSifLoadStartModule
                0x00000000001bb298                sceSifLoadModule
                0x00000000001bb030                sceSifLoadModuleBuffer
                0x00000000001bb3e0                sceSifLoadElfPart
                0x00000000001baa28                sceSifLoadFileReset
 *fill*         0x00000000001bb5f4 0x303db800000004
 .text          0x00000000001bb5f8       0x60 E:/usr/local/sce/ee/lib\libkernl.a(diei.o)
                0x00000000001bb5f8                DIntr
                0x00000000001bb640                EIntr
 .text          0x00000000001bb658       0x6c E:/usr/local/sce/ee/lib\libkernl.a(initsys.o)
                0x00000000001bb6a0                _InitSys
 *fill*         0x00000000001bb6c4 0x303db800000004
 .text          0x00000000001bb6c8      0x360 E:/usr/local/sce/ee/lib\libkernl.a(thread.o)
                0x00000000001bb910                iRotateThreadReadyQueue
                0x00000000001bb878                iWakeupThread
                0x00000000001bb990                iSuspendThread
                0x00000000001bb7a0                InitThread
 .text          0x00000000001bba28      0x1dc E:/usr/local/sce/ee/lib\libkernl.a(deci2.o)
                0x00000000001bbac8                sceDeci2Poll
                0x00000000001bba28                sceDeci2Open
                0x00000000001bba98                sceDeci2ReqSend
                0x00000000001bbb60                sceDeci2ExReqSend
                0x00000000001bba70                sceDeci2Close
                0x00000000001bbb90                sceDeci2ExLock
                0x00000000001bbbe0                kputs
                0x00000000001bbb28                sceDeci2ExSend
                0x00000000001bbbb8                sceDeci2ExUnLock
                0x00000000001bbaf0                sceDeci2ExRecv
 *fill*         0x00000000001bbc04 0x303db800000004
 .text          0x00000000001bbc08      0x748 E:/usr/local/sce/ee/lib\libkernl.a(sifcmd.o)
                0x00000000001bbf68                sceSifAddCmdHandler
                0x00000000001bbf38                sceSifSetCmdBuffer
                0x00000000001bc138                isceSifSendCmd
                0x00000000001bbc38                sceSifGetSreg
                0x00000000001bbf00                sceSifExitCmd
                0x00000000001bc0f8                sceSifSendCmd
                0x00000000001bbf50                sceSifSetSysCmdBuffer
                0x00000000001bbc70                sceSifGetDataTable
                0x00000000001bc2a0                sceSifWriteBackDCache
                0x00000000001bbc80                sceSifInitCmd
                0x00000000001bbf98                sceSifRemoveCmdHandler
                0x00000000001bbc50                sceSifSetSreg
 .text          0x00000000001bc350      0x6ec E:/usr/local/sce/ee/gcc/lib/gcc-lib/ee\2.95.2\libgcc.a(_divdi3.o)
                0x00000000001bc350                __divdi3
 *fill*         0x00000000001bca3c 0x303db800000004
 .text          0x00000000001bca40      0x668 E:/usr/local/sce/ee/gcc/lib/gcc-lib/ee\2.95.2\libgcc.a(_moddi3.o)
                0x00000000001bca40                __moddi3
                0x00000000001bd0a8        0x8 QUAD 0x0

.vutext         0x00000000001bd0b0     0xc530
 .vutext        0x00000000001bd0b0     0x2980 E:/nightly/rwsdk.sky/rwsdk/lib/sky2/librwcore.a(GenericPRL.obj)
                0x00000000001bd0b0                vu1GenericPRL
 .vutext        0x00000000001bfa30     0x2ca0 E:/nightly/rwsdk.sky/rwsdk/lib/sky2/librwcore.a(GenericPRS.obj)
                0x00000000001bfa30                vu1GenericPRS
 .vutext        0x00000000001c26d0     0x3a30 E:/nightly/rwsdk.sky/rwsdk/lib/sky2/librwcore.a(CullFacerPRS.obj)
                0x00000000001c26d0                vu1CullFacePRS
 .vutext        0x00000000001c6100     0x1550 E:/nightly/rwsdk.sky/rwsdk/lib/sky2/librwcore.a(SegmentsPRL.obj)
                0x00000000001c6100                vu1SegmentsPRL
 .vutext        0x00000000001c7650     0x1800 E:/nightly/rwsdk.sky/rwsdk/lib/sky2/librwcore.a(SegmentsPRS.obj)
                0x00000000001c7650                vu1SegmentsPRS
 .vutext        0x00000000001c8e50      0x200 E:/nightly/rwsdk.sky/rwsdk/lib/sky2/librwcore.a(baim2dll.obj)
                0x00000000001c8e50                vu1im2dll
 .vutext        0x00000000001c9050      0x270 E:/nightly/rwsdk.sky/rwsdk/lib/sky2/librwcore.a(baim2dtl.obj)
                0x00000000001c9050                vu1im2dtl
 .vutext        0x00000000001c92c0      0x160 E:/nightly/rwsdk.sky/rwsdk/lib/sky2/librwcore.a(banfim2dll.obj)
                0x00000000001c92c0                vu1nfim2dll
 .vutext        0x00000000001c9420      0x190 E:/nightly/rwsdk.sky/rwsdk/lib/sky2/librwcore.a(banfim2dtl.obj)
                0x00000000001c9420                vu1nfim2dtl
 .vutext        0x00000000001c95b0       0x30 E:/nightly/rwsdk.sky/rwsdk/lib/sky2/librwcore.a(nulltrans.obj)
                0x00000000001c95b0                vu1nullTrans

.reginfo        0x00000000001c95e0       0x18
 *(.reginfo)
 .reginfo       0x00000000001c95e0       0x18 crt0.o

.data           0x00000000001c9600    0x134a8
 *(.data)
 .data          0x00000000001c9600       0x1c obj/sky2/main.o
 *fill*         0x00000000001c961c 0x303f6000000004
 .data          0x00000000001c9620      0x410 obj/sky2/camera.o
 .data          0x00000000001c9a30     0x17f0 obj/sky2/menu.o
                0x00000000001c9ab0                helpLines
 .data          0x00000000001cb220      0x438 obj/sky2/world.o
 .data          0x00000000001cb658      0x27c obj/sky2/skeleton.o
                0x00000000001cb898                RsGlobal
 *fill*         0x00000000001cb8d4 0x303f6000000004
 .data          0x00000000001cb8d8     0x8000 E:/nightly/rwsdk.sky/rwsdk/lib/sky2/librplogo.a(rplogo.obj)
 .data          0x00000000001d38d8       0x1c E:/nightly/rwsdk.sky/rwsdk/lib/sky2/librtimport.a(rtimport.obj)
 *fill*         0x00000000001d38f4 0x303f6000000004
 .data          0x00000000001d38f8       0x14 E:/nightly/rwsdk.sky/rwsdk/lib/sky2/librtcharse.a(chrprint.obj)
                0x00000000001d38f8                _rtgBuffer
 *fill*         0x00000000001d390c 0x303f6000000004
 .data          0x00000000001d3910       0x20 E:/nightly/rwsdk.sky/rwsdk/lib/sky2/librtpng.a(pngrtran.obj)
 .data          0x00000000001d3930       0x1f E:/nightly/rwsdk.sky/rwsdk/lib/sky2/librtpng.a(pngrutil.obj)
 *fill*         0x00000000001d394f 0x303f6000000001
 .data          0x00000000001d3950      0x300 E:/nightly/rwsdk.sky/rwsdk/lib/sky2/librtpng.a(pngtrans.obj)
 .data          0x00000000001d3c50       0x44 E:/nightly/rwsdk.sky/rwsdk/lib/sky2/librtpng.a(trees.obj)
 *fill*         0x00000000001d3c94 0x303f6000000004
 .data          0x00000000001d3c98       0x28 E:/nightly/rwsdk.sky/rwsdk/lib/sky2/librtpng.a(zutil.obj)
                0x00000000001d3c98                z_errmsg
 .data          0x00000000001d3cc0     0x1100 E:/nightly/rwsdk.sky/rwsdk/lib/sky2/librtpng.a(inftrees.obj)
 .data          0x00000000001d4dc0       0x44 E:/nightly/rwsdk.sky/rwsdk/lib/sky2/librtpng.a(infutil.obj)
                0x00000000001d4dc0                inflate_mask
 *fill*         0x00000000001d4e04 0x303f6000000004
 .data          0x00000000001d4e08       0x18 E:/nightly/rwsdk.sky/rwsdk/lib/sky2/librpworld.a(bageomet.obj)
 .data          0x00000000001d4e20       0x18 E:/nightly/rwsdk.sky/rwsdk/lib/sky2/librpworld.a(balight.obj)
 .data          0x00000000001d4e38       0x24 E:/nightly/rwsdk.sky/rwsdk/lib/sky2/librpworld.a(bamateri.obj)
 *fill*         0x00000000001d4e5c 0x303f6000000004
 .data          0x00000000001d4e60       0x18 E:/nightly/rwsdk.sky/rwsdk/lib/sky2/librpworld.a(bameshop.obj)
 .data          0x00000000001d4e78       0x18 E:/nightly/rwsdk.sky/rwsdk/lib/sky2/librpworld.a(basector.obj)
                0x00000000001d4e78                sectorTKList
 .data          0x00000000001d4e90       0x18 E:/nightly/rwsdk.sky/rwsdk/lib/sky2/librpworld.a(baworld.obj)
                0x00000000001d4e90                worldTKList
 .data          0x00000000001d4ea8       0x90 E:/nightly/rwsdk.sky/rwsdk/lib/sky2/librpworld.a(nodeAtomicEnumerateLights.obj)
 .data          0x00000000001d4f38       0xd0 E:/nightly/rwsdk.sky/rwsdk/lib/sky2/librpworld.a(nodeAtomicInstance.obj)
 .data          0x00000000001d5008       0xd0 E:/nightly/rwsdk.sky/rwsdk/lib/sky2/librpworld.a(nodeLight.obj)
 .data          0x00000000001d50d8       0xb8 E:/nightly/rwsdk.sky/rwsdk/lib/sky2/librpworld.a(nodeMaterialScatter.obj)
 .data          0x00000000001d5190       0xb0 E:/nightly/rwsdk.sky/rwsdk/lib/sky2/librpworld.a(nodePostLight.obj)
 .data          0x00000000001d5240       0xb0 E:/nightly/rwsdk.sky/rwsdk/lib/sky2/librpworld.a(nodePreLight.obj)
 .data          0x00000000001d52f0       0x90 E:/nightly/rwsdk.sky/rwsdk/lib/sky2/librpworld.a(nodeWorldSectorEnumerateLights.obj)
 .data          0x00000000001d5380       0xd8 E:/nightly/rwsdk.sky/rwsdk/lib/sky2/librpworld.a(nodeWorldSectorInstance.obj)
 .data          0x00000000001d5458      0x1d0 E:/nightly/rwsdk.sky/rwsdk/lib/sky2/librpworld.a(p2stdclsw.obj)
                0x00000000001d55e8                RxClPS2user1
                0x00000000001d5578                RxClPS2DMASessionRecord
                0x00000000001d55a8                RxClPS2uv
                0x00000000001d55b8                RxClPS2uv2
                0x00000000001d5618                RxClPS2user4
                0x00000000001d5588                RxClPS2Mesh
                0x00000000001d5608                RxClPS2user3
                0x00000000001d55c8                RxClPS2rgba
                0x00000000001d5598                RxClPS2xyz
                0x00000000001d55d8                RxClPS2normal
                0x00000000001d5468                RxClLights
                0x00000000001d5568                RxClPS2LightsBlock
                0x00000000001d55f8                RxClPS2user2
                0x00000000001d5558                RxClPS2DMAChain
 .data          0x00000000001d5628       0x60 E:/nightly/rwsdk.sky/rwsdk/lib/sky2/librpworld.a(fastim3d.obj)
 .data          0x00000000001d5688       0x50 E:/nightly/rwsdk.sky/rwsdk/lib/sky2/librpworld.a(nodeps2all.obj)
 .data          0x00000000001d56d8       0x50 E:/nightly/rwsdk.sky/rwsdk/lib/sky2/librpworld.a(ps2allmat.obj)
 *fill*         0x00000000001d5728 0x303f6000000008
 .data          0x00000000001d5730      0x200 E:/nightly/rwsdk.sky/rwsdk/lib/sky2/librpworld.a(objallinone.obj)
                0x00000000001d5730                lightBuffer
 .data          0x00000000001d5930       0x7c E:/nightly/rwsdk.sky/rwsdk/lib/sky2/librpworld.a(ps2allim3d.obj)
                0x00000000001d5950                gIm3DData
                0x00000000001d5930                gIm3DMeshHeader
 *fill*         0x00000000001d59ac 0x303f6000000004
 .data          0x00000000001d59b0       0x30 E:/nightly/rwsdk.sky/rwsdk/lib/sky2/librpworld.a(baclump.obj)
 .data          0x00000000001d59e0      0x110 E:/nightly/rwsdk.sky/rwsdk/lib/sky2/librpworld.a(nodeps2manager.obj)
 .data          0x00000000001d5af0       0x70 E:/nightly/rwsdk.sky/rwsdk/lib/sky2/librpworld.a(nodeps2matbridge.obj)
 .data          0x00000000001d5b60       0x90 E:/nightly/rwsdk.sky/rwsdk/lib/sky2/librpworld.a(nodeps2matinstance.obj)
 .data          0x00000000001d5bf0      0x130 E:/nightly/rwsdk.sky/rwsdk/lib/sky2/librpworld.a(nodeps2objallinone.obj)
 .data          0x00000000001d5d20       0x18 E:/nightly/rwsdk.sky/rwsdk/lib/sky2/librwcore.a(bacamera.obj)
                0x00000000001d5d20                cameraTKList
 .data          0x00000000001d5d38     0x4118 E:/nightly/rwsdk.sky/rwsdk/lib/sky2/librwcore.a(badevice.obj)
                0x00000000001d5d50                _rwMsbBit
                0x00000000001d5e50                ourGlobals
 .data          0x00000000001d9e50       0x18 E:/nightly/rwsdk.sky/rwsdk/lib/sky2/librwcore.a(baframe.obj)
                0x00000000001d9e50                frameTKList
 .data          0x00000000001d9e68       0x18 E:/nightly/rwsdk.sky/rwsdk/lib/sky2/librwcore.a(baimage.obj)
 .data          0x00000000001d9e80       0x18 E:/nightly/rwsdk.sky/rwsdk/lib/sky2/librwcore.a(baraster.obj)
 .data          0x00000000001d9e98       0x30 E:/nightly/rwsdk.sky/rwsdk/lib/sky2/librwcore.a(batextur.obj)
                0x00000000001d9eb0                texDictTKList
                0x00000000001d9e98                textureTKList
 .data          0x00000000001d9ec8      0x100 E:/nightly/rwsdk.sky/rwsdk/lib/sky2/librwcore.a(nodeClipLine.obj)
 .data          0x00000000001d9fc8      0x110 E:/nightly/rwsdk.sky/rwsdk/lib/sky2/librwcore.a(nodeClipTriangle.obj)
 .data          0x00000000001da0d8       0xf8 E:/nightly/rwsdk.sky/rwsdk/lib/sky2/librwcore.a(nodeCullTriangle.obj)
 .data          0x00000000001da1d0       0xb8 E:/nightly/rwsdk.sky/rwsdk/lib/sky2/librwcore.a(nodeImmInstance.obj)
 .data          0x00000000001da288       0xc8 E:/nightly/rwsdk.sky/rwsdk/lib/sky2/librwcore.a(nodeImmMangleLineIndices.obj)
 .data          0x00000000001da350       0xc8 E:/nightly/rwsdk.sky/rwsdk/lib/sky2/librwcore.a(nodeImmMangleTriangleIndices.obj)
 .data          0x00000000001da418      0x138 E:/nightly/rwsdk.sky/rwsdk/lib/sky2/librwcore.a(nodeImmRenderSetup.obj)
 .data          0x00000000001da550       0xa8 E:/nightly/rwsdk.sky/rwsdk/lib/sky2/librwcore.a(nodeImmStash.obj)
 .data          0x00000000001da5f8       0xc0 E:/nightly/rwsdk.sky/rwsdk/lib/sky2/librwcore.a(nodeSubmitLine.obj)
 .data          0x00000000001da6b8       0xc8 E:/nightly/rwsdk.sky/rwsdk/lib/sky2/librwcore.a(nodeSubmitTriangle.obj)
 .data          0x00000000001da780       0xe8 E:/nightly/rwsdk.sky/rwsdk/lib/sky2/librwcore.a(nodeTransform.obj)
 .data          0x00000000001da868       0x18 E:/nightly/rwsdk.sky/rwsdk/lib/sky2/librwcore.a(p2altmdl.obj)
                0x00000000001da868                _rxExecCtxGlobal
 .data          0x00000000001da880       0x28 E:/nightly/rwsdk.sky/rwsdk/lib/sky2/librwcore.a(p2clpcom.obj)
                0x00000000001da880                _rwClipInfoGlobal
 .data          0x00000000001da8a8      0x1d8 E:/nightly/rwsdk.sky/rwsdk/lib/sky2/librwcore.a(p2stdcls.obj)
                0x00000000001da9b0                RxClIndices
                0x00000000001da928                RxClScrSpace2DVertices
                0x00000000001daa50                RxClRGBAs
                0x00000000001da8f8                RxClCamSpace3DVertices
                0x00000000001daa70                RxClCamNorms
                0x00000000001da950                RxClInterpolants
                0x00000000001daa30                RxClVSteps
                0x00000000001da970                RxClMeshState
                0x00000000001da8c8                RxClObjSpace3DVertices
                0x00000000001da9f0                RxClTriPlanes
                0x00000000001da990                RxClRenderState
                0x00000000001daa10                RxClUVs
                0x00000000001da9d0                RxClScatter
 .data          0x00000000001daa80      0x100 E:/nightly/rwsdk.sky/rwsdk/lib/sky2/librwcore.a(badma.obj)
                0x00000000001daac0                tcaaDisp
                0x00000000001daa80                _RwSavedGP
 .data          0x00000000001dab80      0xa7c E:/nightly/rwsdk.sky/rwsdk/lib/sky2/librwcore.a(basky.obj)
                0x00000000001db5f0                skyFakeCacheFrameBuffer1
                0x00000000001db2b0                sweDb
                0x00000000001db5e0                skyFakeCacheFrameBuffer0
 *fill*         0x00000000001db5fc 0x303f6000000004
 .data          0x00000000001db600      0x210 E:/nightly/rwsdk.sky/rwsdk/lib/sky2/librwcore.a(skyinst.obj)
                0x00000000001db6e0                skyClipVect1
                0x00000000001db6a0                runCmd128
                0x00000000001db700                skyCClipVect1
                0x00000000001db660                gifTagPrim128
                0x00000000001db650                gifTag128
                0x00000000001db610                dma10Header128
                0x00000000001db630                dma1Header128
                0x00000000001db6f0                skyClipVect2
                0x00000000001db680                nullLightBlock
                0x00000000001db6c0                unmaskCmd128
                0x00000000001db6d0                zero128
                0x00000000001db620                dma1End128
                0x00000000001db6b0                surfLightCoeffs
                0x00000000001db710                skyCClipVect2
                0x00000000001db600                contCmd128
                0x00000000001db640                dma1Ret128
                0x00000000001db670                maskCmd128
 *fill*         0x00000000001db810 0x303f6000000030
 .data          0x00000000001db840       0x80 E:/nightly/rwsdk.sky/rwsdk/lib/sky2/librwcore.a(skywrins.obj)
                0x00000000001db840                skyVU1Transforms
 .data          0x00000000001db8c0       0x40 E:/nightly/rwsdk.sky/rwsdk/lib/sky2/librwcore.a(texcache.obj)
 .data          0x00000000001db900       0x80 E:/nightly/rwsdk.sky/rwsdk/lib/sky2/librwcore.a(imrascnv.obj)
 .data          0x00000000001db980       0x20 E:/usr/local/sce/ee/lib/libgraph.a(graph001.o)
 .data          0x00000000001db9a0       0x20 E:/usr/local/sce/ee/lib/libgraph.a(graph002.o)
 .data          0x00000000001db9c0       0x10 E:/usr/local/sce/ee/lib/libgraph.a(graph018.o)
 .data          0x00000000001db9d0       0xac E:/usr/local/sce/ee/lib/libdma.a(libdma.o)
                0x00000000001dba68                sceDmaCurrentEnv
                0x00000000001db9d0                dch
                0x00000000001db9f8                sceDmaDebugMode
 *fill*         0x00000000001dba7c 0x303f6000000004
 .data          0x00000000001dba80       0x44 E:/usr/local/sce/ee/lib/libpad.a(libpad.o)
 .data          0x00000000001dbac4        0x4 E:/usr/local/sce/ee/gcc/lib/gcc-lib/ee\2.95.2\libgcc.a(__main.o)
 .data          0x00000000001dbac8      0x2f0 E:/usr/local/sce/ee/gcc/lib/gcc-lib/ee\2.95.2\../../../../ee\lib\libc.a(impure.o)
                0x00000000001dbdb4                _impure_ptr
 .data          0x00000000001dbdb8      0x458 E:/usr/local/sce/ee/gcc/lib/gcc-lib/ee\2.95.2\../../../../ee\lib\libc.a(mallocr.o)
                0x00000000001dc1c8                __malloc_top_pad
                0x00000000001dc1d8                __malloc_max_sbrked_mem
                0x00000000001dc1d0                __malloc_sbrk_base
                0x00000000001dc1e8                __malloc_current_mallinfo
                0x00000000001dbdb8                __malloc_av_
                0x00000000001dc1e0                __malloc_max_total_mem
                0x00000000001dc1c0                __malloc_trim_threshold
 .data          0x00000000001dc210       0x18 E:/usr/local/sce/ee/gcc/lib/gcc-lib/ee\2.95.2\../../../../ee\lib\libc.a(locale.o)
                0x00000000001dc210                __mb_cur_max
 .data          0x00000000001dc228       0x10 E:/usr/local/sce/ee/lib\libkernl.a(klib.o)
                0x00000000001dc228                __ps2_klibinfo__
 .data          0x00000000001dc238        0x8 E:/usr/local/sce/ee/lib\libkernl.a(glue.o)
 .data          0x00000000001dc240      0x7a8 E:/usr/local/sce/ee/lib\libkernl.a(intr.o)
 .data          0x00000000001dc9e8        0x8 E:/usr/local/sce/ee/lib\libkernl.a(kprintf.o)
 .data          0x00000000001dc9f0        0x4 E:/usr/local/sce/ee/lib\libkernl.a(sifrpc.o)
 *fill*         0x00000000001dc9f4 0x303f6000000004
 .data          0x00000000001dc9f8       0x94 E:/usr/local/sce/ee/lib\libkernl.a(filestub.o)
                0x00000000001dc9f8                _sceFs_q
 .data          0x00000000001dca8c        0x4 E:/usr/local/sce/ee/lib\libkernl.a(iopheap.o)
 .data          0x00000000001dca90        0x8 E:/usr/local/sce/ee/lib\libkernl.a(eeloadfile.o)
 .data          0x00000000001dca98        0x8 E:/usr/local/sce/ee/lib\libkernl.a(initsys.o)
                0x00000000001dca98                __sce_sema_id
                0x00000000001dca9c                __sce_eh_sema_id
 .data          0x00000000001dcaa0        0x4 E:/usr/local/sce/ee/lib\libkernl.a(thread.o)
 .data          0x00000000001dcaa4        0x4 E:/usr/local/sce/ee/lib\libkernl.a(sifcmd.o)

.vudata         0x00000000001dcab0       0xc0
 .vudata        0x00000000001dcab0       0xc0 E:/nightly/rwsdk.sky/rwsdk/lib/sky2/librwcore.a(baasm.obj)
                0x00000000001dcab0                gs_set_up
                0x00000000001dcb30                screen_refresh

.rodata         0x00000000001dcb80     0xa3b8
 *(.rodata)
 .rodata        0x00000000001dcb80      0x15c obj/sky2/main.o
 *fill*         0x00000000001dccdc 0x30382800000004
 .rodata        0x00000000001dcce0       0x64 obj/sky2/menu.o
 *fill*         0x00000000001dcd44 0x30382800000004
 .rodata        0x00000000001dcd48       0x2c obj/sky2/world.o
 *fill*         0x00000000001dcd74 0x3038280000000c
 .rodata        0x00000000001dcd80      0x15d obj/sky2/skeleton.o
 *fill*         0x00000000001dcedd 0x30382800000003
 .rodata        0x00000000001dcee0      0x1ec obj/sky2/sky.o
 *fill*         0x00000000001dd0cc 0x30382800000004
 .rodata        0x00000000001dd0d0       0x60 E:/nightly/rwsdk.sky/rwsdk/lib/sky2/librplogo.a(rplogo.obj)
 .rodata        0x00000000001dd130       0x3d E:/nightly/rwsdk.sky/rwsdk/lib/sky2/librtimport.a(rtimport.obj)
 *fill*         0x00000000001dd16d 0x30382800000003
 .rodata        0x00000000001dd170       0x3d E:/nightly/rwsdk.sky/rwsdk/lib/sky2/librtimport.a(nhscond.obj)
 *fill*         0x00000000001dd1ad 0x30382800000003
 .rodata        0x00000000001dd1b0       0x3e E:/nightly/rwsdk.sky/rwsdk/lib/sky2/librtimport.a(nhssplit.obj)
 *fill*         0x00000000001dd1ee 0x30382800000002
 .rodata        0x00000000001dd1f0       0x3c E:/nightly/rwsdk.sky/rwsdk/lib/sky2/librtimport.a(nhsstats.obj)
 *fill*         0x00000000001dd22c 0x30382800000004
 .rodata        0x00000000001dd230       0x6c E:/nightly/rwsdk.sky/rwsdk/lib/sky2/librtimport.a(nhsutil.obj)
 *fill*         0x00000000001dd29c 0x30382800000004
 .rodata        0x00000000001dd2a0       0x3c E:/nightly/rwsdk.sky/rwsdk/lib/sky2/librtimport.a(nhswing.obj)
 *fill*         0x00000000001dd2dc 0x30382800000004
 .rodata        0x00000000001dd2e0       0x3c E:/nightly/rwsdk.sky/rwsdk/lib/sky2/librtimport.a(nhsworld.obj)
 *fill*         0x00000000001dd31c 0x30382800000004
 .rodata        0x00000000001dd320       0x48 E:/nightly/rwsdk.sky/rwsdk/lib/sky2/librtimport.a(nhsbary.obj)
 .rodata        0x00000000001dd368       0x3c E:/nightly/rwsdk.sky/rwsdk/lib/sky2/librtimport.a(nhssmplx.obj)
 *fill*         0x00000000001dd3a4 0x30382800000004
 .rodata        0x00000000001dd3a8       0x3d E:/nightly/rwsdk.sky/rwsdk/lib/sky2/librtcharse.a(chrprint.obj)
 *fill*         0x00000000001dd3e5 0x30382800000003
 .rodata        0x00000000001dd3e8      0x53a E:/nightly/rwsdk.sky/rwsdk/lib/sky2/librtcharse.a(rtcharse.obj)
 *fill*         0x00000000001dd922 0x3038280000000e
 .rodata        0x00000000001dd930       0xc0 E:/nightly/rwsdk.sky/rwsdk/lib/sky2/librtbmp.a(rtbmp.obj)
 .rodata        0x00000000001dd9f0       0x5c E:/nightly/rwsdk.sky/rwsdk/lib/sky2/librtpng.a(rtpng.obj)
 *fill*         0x00000000001dda4c 0x30382800000004
 .rodata        0x00000000001dda50      0x228 E:/nightly/rwsdk.sky/rwsdk/lib/sky2/librtpng.a(png.obj)
                0x00000000001ddaa8                png_pass_ystart
                0x00000000001dda68                png_pass_start
                0x00000000001ddb08                png_pass_dsp_mask
                0x00000000001ddae8                png_pass_mask
                0x00000000001dda88                png_pass_inc
                0x00000000001ddac8                png_pass_yinc
                0x00000000001dda50                png_libpng_ver
 .rodata        0x00000000001ddc78       0x10 E:/nightly/rwsdk.sky/rwsdk/lib/sky2/librtpng.a(pngerror.obj)
 .rodata        0x00000000001ddc88       0x32 E:/nightly/rwsdk.sky/rwsdk/lib/sky2/librtpng.a(pngget.obj)
 *fill*         0x00000000001ddcba 0x30382800000006
 .rodata        0x00000000001ddcc0       0x5e E:/nightly/rwsdk.sky/rwsdk/lib/sky2/librtpng.a(pngmem.obj)
 *fill*         0x00000000001ddd1e 0x30382800000002
 .rodata        0x00000000001ddd20      0x346 E:/nightly/rwsdk.sky/rwsdk/lib/sky2/librtpng.a(pngread.obj)
 *fill*         0x00000000001de066 0x30382800000002
 .rodata        0x00000000001de068       0x9a E:/nightly/rwsdk.sky/rwsdk/lib/sky2/librtpng.a(pngrio.obj)
 *fill*         0x00000000001de102 0x3038280000000e
 .rodata        0x00000000001de110      0x278 E:/nightly/rwsdk.sky/rwsdk/lib/sky2/librtpng.a(pngrtran.obj)
 *fill*         0x00000000001de388 0x30382800000008
 .rodata        0x00000000001de390      0xcf0 E:/nightly/rwsdk.sky/rwsdk/lib/sky2/librtpng.a(pngrutil.obj)
 .rodata        0x00000000001df080      0x240 E:/nightly/rwsdk.sky/rwsdk/lib/sky2/librtpng.a(pngset.obj)
 .rodata        0x00000000001df2c0       0x8d E:/nightly/rwsdk.sky/rwsdk/lib/sky2/librtpng.a(pngwio.obj)
 *fill*         0x00000000001df34d 0x30382800000003
 .rodata        0x00000000001df350      0x3ee E:/nightly/rwsdk.sky/rwsdk/lib/sky2/librtpng.a(pngwrite.obj)
 *fill*         0x00000000001df73e 0x30382800000002
 .rodata        0x00000000001df740      0x6d8 E:/nightly/rwsdk.sky/rwsdk/lib/sky2/librtpng.a(pngwutil.obj)
 .rodata        0x00000000001dfe18       0xb0 E:/nightly/rwsdk.sky/rwsdk/lib/sky2/librtpng.a(deflate.obj)
                0x00000000001dfe18                deflate_copyright
 .rodata        0x00000000001dfec8      0xa40 E:/nightly/rwsdk.sky/rwsdk/lib/sky2/librtpng.a(trees.obj)
                0x00000000001e0718                _length_code
                0x00000000001e0518                _dist_code
 .rodata        0x00000000001e0908       0x90 E:/nightly/rwsdk.sky/rwsdk/lib/sky2/librtpng.a(zutil.obj)
 *fill*         0x00000000001e0998 0x30382800000008
 .rodata        0x00000000001e09a0       0xb8 E:/nightly/rwsdk.sky/rwsdk/lib/sky2/librtpng.a(inflate.obj)
 *fill*         0x00000000001e0a58 0x30382800000008
 .rodata        0x00000000001e0a60       0xf8 E:/nightly/rwsdk.sky/rwsdk/lib/sky2/librtpng.a(infblock.obj)
 .rodata        0x00000000001e0b58      0x319 E:/nightly/rwsdk.sky/rwsdk/lib/sky2/librtpng.a(inftrees.obj)
                0x00000000001e0b58                inflate_copyright
 *fill*         0x00000000001e0e71 0x3038280000000f
 .rodata        0x00000000001e0e80       0x68 E:/nightly/rwsdk.sky/rwsdk/lib/sky2/librtpng.a(infcodes.obj)
 .rodata        0x00000000001e0ee8       0x34 E:/nightly/rwsdk.sky/rwsdk/lib/sky2/librtpng.a(inffast.obj)
 *fill*         0x00000000001e0f1c 0x30382800000004
 .rodata        0x00000000001e0f20      0x800 E:/nightly/rwsdk.sky/rwsdk/lib/sky2/librtpng.a(crc32.obj)
 .rodata        0x00000000001e1720       0x46 E:/nightly/rwsdk.sky/rwsdk/lib/sky2/librpworld.a(bageomet.obj)
 *fill*         0x00000000001e1766 0x30382800000002
 .rodata        0x00000000001e1768       0x3c E:/nightly/rwsdk.sky/rwsdk/lib/sky2/librpworld.a(balight.obj)
 *fill*         0x00000000001e17a4 0x30382800000004
 .rodata        0x00000000001e17a8       0x42 E:/nightly/rwsdk.sky/rwsdk/lib/sky2/librpworld.a(bamateri.obj)
 *fill*         0x00000000001e17ea 0x30382800000006
 .rodata        0x00000000001e17f0       0x3c E:/nightly/rwsdk.sky/rwsdk/lib/sky2/librpworld.a(bamatlst.obj)
 *fill*         0x00000000001e182c 0x30382800000004
 .rodata        0x00000000001e1830       0x40 E:/nightly/rwsdk.sky/rwsdk/lib/sky2/librpworld.a(bamesh.obj)
 .rodata        0x00000000001e1870       0x3d E:/nightly/rwsdk.sky/rwsdk/lib/sky2/librpworld.a(bameshop.obj)
 *fill*         0x00000000001e18ad 0x30382800000003
 .rodata        0x00000000001e18b0       0x3d E:/nightly/rwsdk.sky/rwsdk/lib/sky2/librpworld.a(basector.obj)
 *fill*         0x00000000001e18ed 0x30382800000003
 .rodata        0x00000000001e18f0       0x3e E:/nightly/rwsdk.sky/rwsdk/lib/sky2/librpworld.a(baworld.obj)
 *fill*         0x00000000001e192e 0x30382800000002
 .rodata        0x00000000001e1930       0x3d E:/nightly/rwsdk.sky/rwsdk/lib/sky2/librpworld.a(baworobj.obj)
 *fill*         0x00000000001e196d 0x30382800000003
 .rodata        0x00000000001e1970       0x3d E:/nightly/rwsdk.sky/rwsdk/lib/sky2/librpworld.a(bapipew.obj)
 *fill*         0x00000000001e19ad 0x30382800000003
 .rodata        0x00000000001e19b0       0x4d E:/nightly/rwsdk.sky/rwsdk/lib/sky2/librpworld.a(nodeAtomicEnumerateLights.obj)
 *fill*         0x00000000001e19fd 0x30382800000003
 .rodata        0x00000000001e1a00       0x54 E:/nightly/rwsdk.sky/rwsdk/lib/sky2/librpworld.a(nodeAtomicInstance.obj)
 *fill*         0x00000000001e1a54 0x30382800000004
 .rodata        0x00000000001e1a58       0x3c E:/nightly/rwsdk.sky/rwsdk/lib/sky2/librpworld.a(nodeLight.obj)
 *fill*         0x00000000001e1a94 0x30382800000004
 .rodata        0x00000000001e1a98       0x46 E:/nightly/rwsdk.sky/rwsdk/lib/sky2/librpworld.a(nodeMaterialScatter.obj)
 *fill*         0x00000000001e1ade 0x30382800000002
 .rodata        0x00000000001e1ae0       0x41 E:/nightly/rwsdk.sky/rwsdk/lib/sky2/librpworld.a(nodePostLight.obj)
 *fill*         0x00000000001e1b21 0x30382800000007
 .rodata        0x00000000001e1b28       0x3f E:/nightly/rwsdk.sky/rwsdk/lib/sky2/librpworld.a(nodePreLight.obj)
 *fill*         0x00000000001e1b67 0x30382800000001
 .rodata        0x00000000001e1b68       0x52 E:/nightly/rwsdk.sky/rwsdk/lib/sky2/librpworld.a(nodeWorldSectorEnumerateLights.obj)
 *fill*         0x00000000001e1bba 0x30382800000006
 .rodata        0x00000000001e1bc0       0x4b E:/nightly/rwsdk.sky/rwsdk/lib/sky2/librpworld.a(nodeWorldSectorInstance.obj)
 *fill*         0x00000000001e1c0b 0x30382800000005
 .rodata        0x00000000001e1c10       0x3f E:/nightly/rwsdk.sky/rwsdk/lib/sky2/librpworld.a(p2stdclsw.obj)
 *fill*         0x00000000001e1c4f 0x30382800000001
 .rodata        0x00000000001e1c50      0x151 E:/nightly/rwsdk.sky/rwsdk/lib/sky2/librpworld.a(wrldpipe.obj)
 *fill*         0x00000000001e1da1 0x30382800000007
 .rodata        0x00000000001e1da8       0x8e E:/nightly/rwsdk.sky/rwsdk/lib/sky2/librpworld.a(fastim3d.obj)
 *fill*         0x00000000001e1e36 0x3038280000000a
 .rodata        0x00000000001e1e40       0xa0 E:/nightly/rwsdk.sky/rwsdk/lib/sky2/librpworld.a(native.obj)
 .rodata        0x00000000001e1ee0       0x42 E:/nightly/rwsdk.sky/rwsdk/lib/sky2/librpworld.a(nodeps2all.obj)
 *fill*         0x00000000001e1f22 0x3038280000000e
 .rodata        0x00000000001e1f30      0x370 E:/nightly/rwsdk.sky/rwsdk/lib/sky2/librpworld.a(ps2allmat.obj)
 .rodata        0x00000000001e22a0       0x41 E:/nightly/rwsdk.sky/rwsdk/lib/sky2/librpworld.a(objallinone.obj)
 *fill*         0x00000000001e22e1 0x3038280000000f
 .rodata        0x00000000001e22f0      0x1dc E:/nightly/rwsdk.sky/rwsdk/lib/sky2/librpworld.a(matinstance.obj)
 *fill*         0x00000000001e24cc 0x30382800000004
 .rodata        0x00000000001e24d0       0x72 E:/nightly/rwsdk.sky/rwsdk/lib/sky2/librpworld.a(ps2allim3d.obj)
 *fill*         0x00000000001e2542 0x30382800000006
 .rodata        0x00000000001e2548       0x62 E:/nightly/rwsdk.sky/rwsdk/lib/sky2/librpworld.a(ps2allatomic.obj)
 *fill*         0x00000000001e25aa 0x30382800000006
 .rodata        0x00000000001e25b0       0x62 E:/nightly/rwsdk.sky/rwsdk/lib/sky2/librpworld.a(ps2allsector.obj)
 *fill*         0x00000000001e2612 0x30382800000006
 .rodata        0x00000000001e2618       0x3d E:/nightly/rwsdk.sky/rwsdk/lib/sky2/librpworld.a(babinwor.obj)
 *fill*         0x00000000001e2655 0x30382800000003
 .rodata        0x00000000001e2658       0x3c E:/nightly/rwsdk.sky/rwsdk/lib/sky2/librpworld.a(baclump.obj)
 *fill*         0x00000000001e2694 0x30382800000004
 .rodata        0x00000000001e2698       0x3e E:/nightly/rwsdk.sky/rwsdk/lib/sky2/librpworld.a(matputil.obj)
 *fill*         0x00000000001e26d6 0x30382800000002
 .rodata        0x00000000001e26d8       0x46 E:/nightly/rwsdk.sky/rwsdk/lib/sky2/librpworld.a(nodeps2manager.obj)
 *fill*         0x00000000001e271e 0x30382800000002
 .rodata        0x00000000001e2720       0x47 E:/nightly/rwsdk.sky/rwsdk/lib/sky2/librpworld.a(nodeps2matbridge.obj)
 *fill*         0x00000000001e2767 0x30382800000009
 .rodata        0x00000000001e2770      0x6d4 E:/nightly/rwsdk.sky/rwsdk/lib/sky2/librpworld.a(nodeps2matinstance.obj)
 *fill*         0x00000000001e2e44 0x30382800000004
 .rodata        0x00000000001e2e48       0x48 E:/nightly/rwsdk.sky/rwsdk/lib/sky2/librpworld.a(nodeps2objallinone.obj)
 .rodata        0x00000000001e2e90       0x3f E:/nightly/rwsdk.sky/rwsdk/lib/sky2/librwcore.a(babbox.obj)
 *fill*         0x00000000001e2ecf 0x30382800000001
 .rodata        0x00000000001e2ed0       0xa8 E:/nightly/rwsdk.sky/rwsdk/lib/sky2/librwcore.a(babinary.obj)
 .rodata        0x00000000001e2f78       0x3a E:/nightly/rwsdk.sky/rwsdk/lib/sky2/librwcore.a(babinfrm.obj)
 *fill*         0x00000000001e2fb2 0x30382800000006
 .rodata        0x00000000001e2fb8       0x3d E:/nightly/rwsdk.sky/rwsdk/lib/sky2/librwcore.a(babintex.obj)
 *fill*         0x00000000001e2ff5 0x30382800000003
 .rodata        0x00000000001e2ff8       0x62 E:/nightly/rwsdk.sky/rwsdk/lib/sky2/librwcore.a(bacamera.obj)
 *fill*         0x00000000001e305a 0x30382800000006
 .rodata        0x00000000001e3060       0xa8 E:/nightly/rwsdk.sky/rwsdk/lib/sky2/librwcore.a(badevice.obj)
 .rodata        0x00000000001e3108       0x3e E:/nightly/rwsdk.sky/rwsdk/lib/sky2/librwcore.a(baerr.obj)
 *fill*         0x00000000001e3146 0x30382800000002
 .rodata        0x00000000001e3148       0x3c E:/nightly/rwsdk.sky/rwsdk/lib/sky2/librwcore.a(baframe.obj)
 *fill*         0x00000000001e3184 0x30382800000004
 .rodata        0x00000000001e3188       0x3a E:/nightly/rwsdk.sky/rwsdk/lib/sky2/librwcore.a(bafsys.obj)
 *fill*         0x00000000001e31c2 0x30382800000006
 .rodata        0x00000000001e31c8       0x43 E:/nightly/rwsdk.sky/rwsdk/lib/sky2/librwcore.a(baimage.obj)
 *fill*         0x00000000001e320b 0x30382800000005
 .rodata        0x00000000001e3210       0x3f E:/nightly/rwsdk.sky/rwsdk/lib/sky2/librwcore.a(baimmedi.obj)
 *fill*         0x00000000001e324f 0x30382800000001
 .rodata        0x00000000001e3250       0x3b E:/nightly/rwsdk.sky/rwsdk/lib/sky2/librwcore.a(baimras.obj)
 *fill*         0x00000000001e328b 0x30382800000005
 .rodata        0x00000000001e3290       0x3a E:/nightly/rwsdk.sky/rwsdk/lib/sky2/librwcore.a(balist.obj)
 *fill*         0x00000000001e32ca 0x30382800000006
 .rodata        0x00000000001e32d0       0x59 E:/nightly/rwsdk.sky/rwsdk/lib/sky2/librwcore.a(bamatrix.obj)
 *fill*         0x00000000001e3329 0x30382800000007
 .rodata        0x00000000001e3330       0x3d E:/nightly/rwsdk.sky/rwsdk/lib/sky2/librwcore.a(bamemory.obj)
 *fill*         0x00000000001e336d 0x30382800000003
 .rodata        0x00000000001e3370       0x3f E:/nightly/rwsdk.sky/rwsdk/lib/sky2/librwcore.a(baraster.obj)
 *fill*         0x00000000001e33af 0x30382800000001
 .rodata        0x00000000001e33b0       0x3c E:/nightly/rwsdk.sky/rwsdk/lib/sky2/librwcore.a(baresamp.obj)
 *fill*         0x00000000001e33ec 0x30382800000004
 .rodata        0x00000000001e33f0       0x41 E:/nightly/rwsdk.sky/rwsdk/lib/sky2/librwcore.a(baresour.obj)
 *fill*         0x00000000001e3431 0x30382800000007
 .rodata        0x00000000001e3438       0x3c E:/nightly/rwsdk.sky/rwsdk/lib/sky2/librwcore.a(bastream.obj)
 *fill*         0x00000000001e3474 0x30382800000004
 .rodata        0x00000000001e3478       0x38 E:/nightly/rwsdk.sky/rwsdk/lib/sky2/librwcore.a(basync.obj)
 .rodata        0x00000000001e34b0       0x51 E:/nightly/rwsdk.sky/rwsdk/lib/sky2/librwcore.a(batextur.obj)
 *fill*         0x00000000001e3501 0x30382800000007
 .rodata        0x00000000001e3508       0x3b E:/nightly/rwsdk.sky/rwsdk/lib/sky2/librwcore.a(batkbin.obj)
 *fill*         0x00000000001e3543 0x30382800000005
 .rodata        0x00000000001e3548       0x3b E:/nightly/rwsdk.sky/rwsdk/lib/sky2/librwcore.a(batkreg.obj)
 *fill*         0x00000000001e3583 0x30382800000005
 .rodata        0x00000000001e3588       0x41 E:/nightly/rwsdk.sky/rwsdk/lib/sky2/librwcore.a(batypehf.obj)
 *fill*         0x00000000001e35c9 0x30382800000007
 .rodata        0x00000000001e35d0       0x42 E:/nightly/rwsdk.sky/rwsdk/lib/sky2/librwcore.a(bavector.obj)
 *fill*         0x00000000001e3612 0x30382800000006
 .rodata        0x00000000001e3618       0x3b E:/nightly/rwsdk.sky/rwsdk/lib/sky2/librwcore.a(resmem.obj)
 *fill*         0x00000000001e3653 0x30382800000005
 .rodata        0x00000000001e3658       0x3c E:/nightly/rwsdk.sky/rwsdk/lib/sky2/librwcore.a(rwstring.obj)
 *fill*         0x00000000001e3694 0x3038280000000c
 .rodata        0x00000000001e36a0      0x1b8 E:/nightly/rwsdk.sky/rwsdk/lib/sky2/librwcore.a(baim3d.obj)
 .rodata        0x00000000001e3858       0x3c E:/nightly/rwsdk.sky/rwsdk/lib/sky2/librwcore.a(bapipe.obj)
 *fill*         0x00000000001e3894 0x30382800000004
 .rodata        0x00000000001e3898       0x78 E:/nightly/rwsdk.sky/rwsdk/lib/sky2/librwcore.a(nodeClipLine.obj)
 .rodata        0x00000000001e3910       0x78 E:/nightly/rwsdk.sky/rwsdk/lib/sky2/librwcore.a(nodeClipTriangle.obj)
 .rodata        0x00000000001e3988       0x43 E:/nightly/rwsdk.sky/rwsdk/lib/sky2/librwcore.a(nodeCullTriangle.obj)
 *fill*         0x00000000001e39cb 0x30382800000005
 .rodata        0x00000000001e39d0       0x42 E:/nightly/rwsdk.sky/rwsdk/lib/sky2/librwcore.a(nodeImmInstance.obj)
 *fill*         0x00000000001e3a12 0x30382800000006
 .rodata        0x00000000001e3a18       0x4b E:/nightly/rwsdk.sky/rwsdk/lib/sky2/librwcore.a(nodeImmMangleLineIndices.obj)
 *fill*         0x00000000001e3a63 0x30382800000005
 .rodata        0x00000000001e3a68       0x50 E:/nightly/rwsdk.sky/rwsdk/lib/sky2/librwcore.a(nodeImmMangleTriangleIndices.obj)
 *fill*         0x00000000001e3ab8 0x30382800000008
 .rodata        0x00000000001e3ac0       0x68 E:/nightly/rwsdk.sky/rwsdk/lib/sky2/librwcore.a(nodeImmRenderSetup.obj)
 .rodata        0x00000000001e3b28       0x42 E:/nightly/rwsdk.sky/rwsdk/lib/sky2/librwcore.a(nodeImmStash.obj)
 *fill*         0x00000000001e3b6a 0x30382800000006
 .rodata        0x00000000001e3b70       0x41 E:/nightly/rwsdk.sky/rwsdk/lib/sky2/librwcore.a(nodeSubmitLine.obj)
 *fill*         0x00000000001e3bb1 0x30382800000007
 .rodata        0x00000000001e3bb8       0x49 E:/nightly/rwsdk.sky/rwsdk/lib/sky2/librwcore.a(nodeSubmitTriangle.obj)
 *fill*         0x00000000001e3c01 0x30382800000007
 .rodata        0x00000000001e3c08       0x43 E:/nightly/rwsdk.sky/rwsdk/lib/sky2/librwcore.a(nodeTransform.obj)
 *fill*         0x00000000001e3c4b 0x30382800000005
 .rodata        0x00000000001e3c50       0x3e E:/nightly/rwsdk.sky/rwsdk/lib/sky2/librwcore.a(p2clpcom.obj)
 *fill*         0x00000000001e3c8e 0x30382800000002
 .rodata        0x00000000001e3c90       0x3d E:/nightly/rwsdk.sky/rwsdk/lib/sky2/librwcore.a(p2core.obj)
 *fill*         0x00000000001e3ccd 0x30382800000003
 .rodata        0x00000000001e3cd0       0x39 E:/nightly/rwsdk.sky/rwsdk/lib/sky2/librwcore.a(p2dep.obj)
 *fill*         0x00000000001e3d09 0x30382800000007
 .rodata        0x00000000001e3d10       0x61 E:/nightly/rwsdk.sky/rwsdk/lib/sky2/librwcore.a(p2heap.obj)
 *fill*         0x00000000001e3d71 0x30382800000007
 .rodata        0x00000000001e3d78       0x41 E:/nightly/rwsdk.sky/rwsdk/lib/sky2/librwcore.a(p2renderstate.obj)
 *fill*         0x00000000001e3db9 0x30382800000007
 .rodata        0x00000000001e3dc0       0x3c E:/nightly/rwsdk.sky/rwsdk/lib/sky2/librwcore.a(p2resort.obj)
 *fill*         0x00000000001e3dfc 0x30382800000004
 .rodata        0x00000000001e3e00       0x3c E:/nightly/rwsdk.sky/rwsdk/lib/sky2/librwcore.a(p2stdcls.obj)
 *fill*         0x00000000001e3e3c 0x30382800000004
 .rodata        0x00000000001e3e40       0x3e E:/nightly/rwsdk.sky/rwsdk/lib/sky2/librwcore.a(im3dpipe.obj)
 *fill*         0x00000000001e3e7e 0x30382800000002
 .rodata        0x00000000001e3e80      0x1ab E:/nightly/rwsdk.sky/rwsdk/lib/sky2/librwcore.a(badma.obj)
 *fill*         0x00000000001e402b 0x30382800000005
 .rodata        0x00000000001e4030      0x974 E:/nightly/rwsdk.sky/rwsdk/lib/sky2/librwcore.a(basky.obj)
 *fill*         0x00000000001e49a4 0x30382800000004
 .rodata        0x00000000001e49a8       0x3c E:/nightly/rwsdk.sky/rwsdk/lib/sky2/librwcore.a(baskytran.obj)
 *fill*         0x00000000001e49e4 0x30382800000004
 .rodata        0x00000000001e49e8       0xf5 E:/nightly/rwsdk.sky/rwsdk/lib/sky2/librwcore.a(dmaalloc.obj)
 *fill*         0x00000000001e4add 0x30382800000003
 .rodata        0x00000000001e4ae0      0x154 E:/nightly/rwsdk.sky/rwsdk/lib/sky2/librwcore.a(skyblit.obj)
 *fill*         0x00000000001e4c34 0x3038280000000c
 .rodata        0x00000000001e4c40      0x228 E:/nightly/rwsdk.sky/rwsdk/lib/sky2/librwcore.a(skyconv.obj)
 .rodata        0x00000000001e4e68       0x7c E:/nightly/rwsdk.sky/rwsdk/lib/sky2/librwcore.a(skyinst.obj)
 *fill*         0x00000000001e4ee4 0x30382800000004
 .rodata        0x00000000001e4ee8       0x40 E:/nightly/rwsdk.sky/rwsdk/lib/sky2/librwcore.a(skywrins.obj)
 *fill*         0x00000000001e4f28 0x30382800000008
 .rodata        0x00000000001e4f30       0xac E:/nightly/rwsdk.sky/rwsdk/lib/sky2/librwcore.a(texcache.obj)
 *fill*         0x00000000001e4fdc 0x30382800000004
 .rodata        0x00000000001e4fe0       0x3c E:/nightly/rwsdk.sky/rwsdk/lib/sky2/librwcore.a(imrascnv.obj)
 *fill*         0x00000000001e501c 0x30382800000004
 .rodata        0x00000000001e5020       0x3c E:/nightly/rwsdk.sky/rwsdk/lib/sky2/librwcore.a(palquant.obj)
 *fill*         0x00000000001e505c 0x30382800000004
 .rodata        0x00000000001e5060       0x39 E:/nightly/rwsdk.sky/rwsdk/lib/sky2/librwcore.a(osintf.obj)
 *fill*         0x00000000001e5099 0x30382800000007
 .rodata        0x00000000001e50a0       0x40 E:/nightly/rwsdk.sky/rwsdk/lib/sky2/librwcore.a(bacolor.obj)
 .rodata        0x00000000001e50e0       0x3d E:/nightly/rwsdk.sky/rwsdk/lib/sky2/librwcore.a(baevent.obj)
 *fill*         0x00000000001e511d 0x30382800000003
 .rodata        0x00000000001e5120      0x190 E:/usr/local/sce/ee/lib/libgraph.a(graph012.o)
 .rodata        0x00000000001e52b0      0x1cc E:/usr/local/sce/ee/lib/libgraph.a(graph018.o)
 *fill*         0x00000000001e547c 0x30382800000004
 .rodata        0x00000000001e5480       0x32 E:/usr/local/sce/ee/lib/libgraph.a(graph003.o)
 *fill*         0x00000000001e54b2 0x30382800000006
 .rodata        0x00000000001e54b8       0x2f E:/usr/local/sce/ee/lib/libgraph.a(graph008.o)
 *fill*         0x00000000001e54e7 0x30382800000001
 .rodata        0x00000000001e54e8       0x16 E:/usr/local/sce/ee/lib/libdma.a(libdma.o)
 *fill*         0x00000000001e54fe 0x30382800000002
 .rodata        0x00000000001e5500      0x151 E:/usr/local/sce/ee/lib/libpad.a(libpad.o)
 *fill*         0x00000000001e5651 0x30382800000003
 .rodata        0x00000000001e5654        0x4 E:/usr/local/sce/ee/gcc/lib/gcc-lib/ee\2.95.2\../../../../ee\lib\libm.a(sf_ceil.o)
 .rodata        0x00000000001e5658        0x4 E:/usr/local/sce/ee/gcc/lib/gcc-lib/ee\2.95.2\../../../../ee\lib\libm.a(sf_cos.o)
 .rodata        0x00000000001e565c        0x4 E:/usr/local/sce/ee/gcc/lib/gcc-lib/ee\2.95.2\../../../../ee\lib\libm.a(sf_floor.o)
 .rodata        0x00000000001e5660       0x20 E:/usr/local/sce/ee/gcc/lib/gcc-lib/ee\2.95.2\../../../../ee\lib\libm.a(w_pow.o)
 .rodata        0x00000000001e5680       0x10 E:/usr/local/sce/ee/gcc/lib/gcc-lib/ee\2.95.2\../../../../ee\lib\libm.a(w_sqrt.o)
 .rodata        0x00000000001e5690        0x6 E:/usr/local/sce/ee/gcc/lib/gcc-lib/ee\2.95.2\../../../../ee\lib\libm.a(wf_acos.o)
 *fill*         0x00000000001e5696 0x30382800000002
 .rodata        0x00000000001e5698        0x7 E:/usr/local/sce/ee/gcc/lib/gcc-lib/ee\2.95.2\../../../../ee\lib\libm.a(wf_atan2.o)
 *fill*         0x00000000001e569f 0x30382800000001
 .rodata        0x00000000001e56a0       0x20 E:/usr/local/sce/ee/gcc/lib/gcc-lib/ee\2.95.2\../../../../ee\lib\libm.a(wf_pow.o)
 .rodata        0x00000000001e56c0      0x1d0 E:/usr/local/sce/ee/gcc/lib/gcc-lib/ee\2.95.2\../../../../ee\lib\libm.a(e_pow.o)
 .rodata        0x00000000001e5890       0x10 E:/usr/local/sce/ee/gcc/lib/gcc-lib/ee\2.95.2\../../../../ee\lib\libm.a(e_sqrt.o)
 .rodata        0x00000000001e58a0       0x38 E:/usr/local/sce/ee/gcc/lib/gcc-lib/ee\2.95.2\../../../../ee\lib\libm.a(ef_acos.o)
 .rodata        0x00000000001e58d8       0x1c E:/usr/local/sce/ee/gcc/lib/gcc-lib/ee\2.95.2\../../../../ee\lib\libm.a(ef_atan2.o)
 *fill*         0x00000000001e58f4 0x30382800000004
 .rodata        0x00000000001e58f8       0x88 E:/usr/local/sce/ee/gcc/lib/gcc-lib/ee\2.95.2\../../../../ee\lib\libm.a(ef_pow.o)
 .rodata        0x00000000001e5980      0x3c0 E:/usr/local/sce/ee/gcc/lib/gcc-lib/ee\2.95.2\../../../../ee\lib\libm.a(ef_rem_pio2.o)
 .rodata        0x00000000001e5d40        0x8 E:/usr/local/sce/ee/gcc/lib/gcc-lib/ee\2.95.2\../../../../ee\lib\libm.a(ef_sqrt.o)
 .rodata        0x00000000001e5d48       0x1c E:/usr/local/sce/ee/gcc/lib/gcc-lib/ee\2.95.2\../../../../ee\lib\libm.a(kf_cos.o)
 *fill*         0x00000000001e5d64 0x30382800000004
 .rodata        0x00000000001e5d68       0x4c E:/usr/local/sce/ee/gcc/lib/gcc-lib/ee\2.95.2\../../../../ee\lib\libm.a(kf_rem_pio2.o)
 .rodata        0x00000000001e5db4       0x1c E:/usr/local/sce/ee/gcc/lib/gcc-lib/ee\2.95.2\../../../../ee\lib\libm.a(kf_sin.o)
 .rodata        0x00000000001e5dd0        0x8 E:/usr/local/sce/ee/gcc/lib/gcc-lib/ee\2.95.2\../../../../ee\lib\libm.a(s_infconst.o)
                0x00000000001e5dd0                __infinity
 .rodata        0x00000000001e5dd8        0x4 E:/usr/local/sce/ee/gcc/lib/gcc-lib/ee\2.95.2\../../../../ee\lib\libm.a(s_lib_ver.o)
                0x00000000001e5dd8                __fdlib_version
 *fill*         0x00000000001e5ddc 0x30382800000004
 .rodata        0x00000000001e5de0       0x10 E:/usr/local/sce/ee/gcc/lib/gcc-lib/ee\2.95.2\../../../../ee\lib\libm.a(s_rint.o)
 .rodata        0x00000000001e5df0       0x30 E:/usr/local/sce/ee/gcc/lib/gcc-lib/ee\2.95.2\../../../../ee\lib\libm.a(s_scalbn.o)
 .rodata        0x00000000001e5e20       0x54 E:/usr/local/sce/ee/gcc/lib/gcc-lib/ee\2.95.2\../../../../ee\lib\libm.a(sf_atan.o)
 .rodata        0x00000000001e5e74       0x10 E:/usr/local/sce/ee/gcc/lib/gcc-lib/ee\2.95.2\../../../../ee\lib\libm.a(sf_scalbn.o)
 *fill*         0x00000000001e5e84 0x30382800000004
 .rodata        0x00000000001e5e88      0x100 E:/usr/local/sce/ee/gcc/lib/gcc-lib/ee\2.95.2\libgcc.a(_udivdi3.o)
 .rodata        0x00000000001e5f88      0x100 E:/usr/local/sce/ee/gcc/lib/gcc-lib/ee\2.95.2\libgcc.a(_umoddi3.o)
 .rodata        0x00000000001e6088      0x101 E:/usr/local/sce/ee/gcc/lib/gcc-lib/ee\2.95.2\../../../../ee\lib\libc.a(ctype_.o)
                0x00000000001e6088                _ctype_
 *fill*         0x00000000001e6189 0x30382800000007
 .rodata        0x00000000001e6190        0x2 E:/usr/local/sce/ee/gcc/lib/gcc-lib/ee\2.95.2\../../../../ee\lib\libc.a(impure.o)
 *fill*         0x00000000001e6192 0x3038280000000e
 .rodata        0x00000000001e61a0       0xd0 E:/usr/local/sce/ee/gcc/lib/gcc-lib/ee\2.95.2\../../../../ee\lib\libc.a(strtod.o)
 .rodata        0x00000000001e6270      0x204 E:/usr/local/sce/ee/gcc/lib/gcc-lib/ee\2.95.2\../../../../ee\lib\libc.a(vfprintf.o)
 *fill*         0x00000000001e6474 0x3038280000000c
 .rodata        0x00000000001e6480      0x46c E:/usr/local/sce/ee/gcc/lib/gcc-lib/ee\2.95.2\../../../../ee\lib\libc.a(vfscanf.o)
 *fill*         0x00000000001e68ec 0x30382800000004
 .rodata        0x00000000001e68f0       0x58 E:/usr/local/sce/ee/gcc/lib/gcc-lib/ee\2.95.2\../../../../ee\lib\libc.a(dtoa.o)
 .rodata        0x00000000001e6948       0x42 E:/usr/local/sce/ee/gcc/lib/gcc-lib/ee\2.95.2\../../../../ee\lib\libc.a(locale.o)
 *fill*         0x00000000001e698a 0x30382800000006
 .rodata        0x00000000001e6990      0x128 E:/usr/local/sce/ee/gcc/lib/gcc-lib/ee\2.95.2\../../../../ee\lib\libc.a(mprec.o)
                0x00000000001e6a90                __mprec_tinytens
                0x00000000001e69a0                __mprec_tens
                0x00000000001e6a68                __mprec_bigtens
 .rodata        0x00000000001e6ab8       0x70 E:/usr/local/sce/ee/lib\libkernl.a(tty.o)
 *fill*         0x00000000001e6b28 0x30382800000008
 .rodata        0x00000000001e6b30      0x154 E:/usr/local/sce/ee/lib\libkernl.a(kprintf.o)
 *fill*         0x00000000001e6c84 0x3038280000000c
 .rodata        0x00000000001e6c90       0x6d E:/usr/local/sce/ee/lib\libkernl.a(filestub.o)
 *fill*         0x00000000001e6cfd 0x30382800000003
 .rodata        0x00000000001e6d00        0xc E:/usr/local/sce/ee/lib\libkernl.a(eeloadfile.o)
 *fill*         0x00000000001e6d0c 0x30382800000004
 .rodata        0x00000000001e6d10       0x22 E:/usr/local/sce/ee/lib\libkernl.a(thread.o)
 *fill*         0x00000000001e6d32 0x30382800000006
 .rodata        0x00000000001e6d38      0x100 E:/usr/local/sce/ee/gcc/lib/gcc-lib/ee\2.95.2\libgcc.a(_divdi3.o)
 .rodata        0x00000000001e6e38      0x100 E:/usr/local/sce/ee/gcc/lib/gcc-lib/ee\2.95.2\libgcc.a(_moddi3.o)

.rel.dyn        0x00000000001e6f40        0x0

.rdata
 *(.rdata)

.gcc_except_table
 *(.gcc_except_table)
                0x00000000001eef70                _gp=(ALIGN(0x80)+0x7ff0)

.lit8
 *(.lit8)

.lit4           0x00000000001e6f80      0x1d4
 *(.lit4)
 .lit4          0x00000000001e6f80        0x8 obj/sky2/main.o
 .lit4          0x00000000001e6f88       0x20 obj/sky2/menu.o
 .lit4          0x00000000001e6fa8       0x10 obj/sky2/world.o
 .lit4          0x00000000001e6fb8        0x8 obj/sky2/skeleton.o
 .lit4          0x00000000001e6fc0        0x4 obj/sky2/sky.o
 .lit4          0x00000000001e6fc4        0x8 E:/nightly/rwsdk.sky/rwsdk/lib/sky2/librplogo.a(rplogo.obj)
 .lit4          0x00000000001e6fcc        0x4 E:/nightly/rwsdk.sky/rwsdk/lib/sky2/librtimport.a(rtimport.obj)
 .lit4          0x00000000001e6fd0       0x18 E:/nightly/rwsdk.sky/rwsdk/lib/sky2/librtimport.a(nhssplit.obj)
 .lit4          0x00000000001e6fe8        0x8 E:/nightly/rwsdk.sky/rwsdk/lib/sky2/librtpng.a(pngrutil.obj)
 .lit4          0x00000000001e6ff0       0x24 E:/nightly/rwsdk.sky/rwsdk/lib/sky2/librtpng.a(pngset.obj)
 .lit4          0x00000000001e7014        0x4 E:/nightly/rwsdk.sky/rwsdk/lib/sky2/librpworld.a(bageomet.obj)
 .lit4          0x00000000001e7018       0x90 E:/nightly/rwsdk.sky/rwsdk/lib/sky2/librpworld.a(balight.obj)
 .lit4          0x00000000001e70a8        0x4 E:/nightly/rwsdk.sky/rwsdk/lib/sky2/librpworld.a(nodePostLight.obj)
 .lit4          0x00000000001e70ac        0x4 E:/nightly/rwsdk.sky/rwsdk/lib/sky2/librpworld.a(nodeWorldSectorInstance.obj)
 .lit4          0x00000000001e70b0       0x10 E:/nightly/rwsdk.sky/rwsdk/lib/sky2/librpworld.a(ps2allim3d.obj)
 .lit4          0x00000000001e70c0       0x10 E:/nightly/rwsdk.sky/rwsdk/lib/sky2/librpworld.a(ps2allatomic.obj)
 .lit4          0x00000000001e70d0       0x10 E:/nightly/rwsdk.sky/rwsdk/lib/sky2/librpworld.a(nodeps2matbridge.obj)
 .lit4          0x00000000001e70e0        0x8 E:/nightly/rwsdk.sky/rwsdk/lib/sky2/librwcore.a(babinfrm.obj)
 .lit4          0x00000000001e70e8       0x18 E:/nightly/rwsdk.sky/rwsdk/lib/sky2/librwcore.a(bacamera.obj)
 .lit4          0x00000000001e7100        0x4 E:/nightly/rwsdk.sky/rwsdk/lib/sky2/librwcore.a(baimage.obj)
 .lit4          0x00000000001e7104        0xc E:/nightly/rwsdk.sky/rwsdk/lib/sky2/librwcore.a(bamatrix.obj)
 .lit4          0x00000000001e7110        0xc E:/nightly/rwsdk.sky/rwsdk/lib/sky2/librwcore.a(baresamp.obj)
 .lit4          0x00000000001e711c       0x1c E:/nightly/rwsdk.sky/rwsdk/lib/sky2/librwcore.a(basky.obj)
 .lit4          0x00000000001e7138       0x10 E:/nightly/rwsdk.sky/rwsdk/lib/sky2/librwcore.a(skyinst.obj)
 .lit4          0x00000000001e7148        0xc E:/nightly/rwsdk.sky/rwsdk/lib/sky2/librwcore.a(palquant.obj)

.sdata          0x00000000001e7180      0x828
 *(.sdata)
 .sdata         0x00000000001e7180       0x3c obj/sky2/main.o
 .sdata         0x00000000001e71bc        0x4 obj/sky2/events.o
 .sdata         0x00000000001e71c0        0x4 obj/sky2/camera.o
 *fill*         0x00000000001e71c4 0x303b8000000004
 .sdata         0x00000000001e71c8       0x9d obj/sky2/menu.o
 *fill*         0x00000000001e7265 0x303b8000000003
 .sdata         0x00000000001e7268        0xc obj/sky2/world.o
 *fill*         0x00000000001e7274 0x303b8000000004
 .sdata         0x00000000001e7278       0x4a obj/sky2/skeleton.o
 *fill*         0x00000000001e72c2 0x303b8000000006
 .sdata         0x00000000001e72c8       0x40 obj/sky2/sky.o
 .sdata         0x00000000001e7308       0x12 obj/sky2/skyfs.o
 *fill*         0x00000000001e731a 0x303b8000000002
 .sdata         0x00000000001e731c       0x18 E:/nightly/rwsdk.sky/rwsdk/lib/sky2/librplogo.a(rplogo.obj)
 .sdata         0x00000000001e7334       0x1c E:/nightly/rwsdk.sky/rwsdk/lib/sky2/librtimport.a(rtimport.obj)
                0x00000000001e733c                _rtWorldImportNumPolysInLeaves
                0x00000000001e7340                _rtWorldImportNumPolysInCompressedLeaves
                0x00000000001e7338                _rtWorldImportTotalPolysInWorld
 .sdata         0x00000000001e7350        0xc E:/nightly/rwsdk.sky/rwsdk/lib/sky2/librtimport.a(nhscond.obj)
 .sdata         0x00000000001e735c        0x8 E:/nightly/rwsdk.sky/rwsdk/lib/sky2/librtimport.a(nhssplit.obj)
 .sdata         0x00000000001e7364        0x4 E:/nightly/rwsdk.sky/rwsdk/lib/sky2/librtimport.a(nhsstats.obj)
 .sdata         0x00000000001e7368        0x4 E:/nightly/rwsdk.sky/rwsdk/lib/sky2/librtimport.a(nhsutil.obj)
 .sdata         0x00000000001e736c        0x4 E:/nightly/rwsdk.sky/rwsdk/lib/sky2/librtimport.a(nhswing.obj)
 .sdata         0x00000000001e7370        0x4 E:/nightly/rwsdk.sky/rwsdk/lib/sky2/librtimport.a(nhsworld.obj)
 .sdata         0x00000000001e7374        0x4 E:/nightly/rwsdk.sky/rwsdk/lib/sky2/librtimport.a(nhsbary.obj)
 .sdata         0x00000000001e7378        0xc E:/nightly/rwsdk.sky/rwsdk/lib/sky2/librtimport.a(nhssmplx.obj)
 *fill*         0x00000000001e7384 0x303b8000000004
 .sdata         0x00000000001e7388        0xa E:/nightly/rwsdk.sky/rwsdk/lib/sky2/librtcharse.a(chrprint.obj)
 *fill*         0x00000000001e7392 0x303b8000000002
 .sdata         0x00000000001e7394        0x4 E:/nightly/rwsdk.sky/rwsdk/lib/sky2/librtcharse.a(rtcharse.obj)
 .sdata         0x00000000001e7398        0x4 E:/nightly/rwsdk.sky/rwsdk/lib/sky2/librtbmp.a(rtbmp.obj)
 *fill*         0x00000000001e739c 0x303b8000000004
 .sdata         0x00000000001e73a0        0xf E:/nightly/rwsdk.sky/rwsdk/lib/sky2/librtpng.a(rtpng.obj)
 *fill*         0x00000000001e73af 0x303b8000000001
 .sdata         0x00000000001e73b0       0xc7 E:/nightly/rwsdk.sky/rwsdk/lib/sky2/librtpng.a(png.obj)
                0x00000000001e7450                png_tRNS
                0x00000000001e7400                png_iTXt
                0x00000000001e73c8                png_IEND
                0x00000000001e73f0                png_hIST
                0x00000000001e73e8                png_gAMA
                0x00000000001e73d8                png_bKGD
                0x00000000001e7430                png_sPLT
                0x00000000001e7428                png_sBIT
                0x00000000001e7418                png_sCAL
                0x00000000001e73d0                png_PLTE
                0x00000000001e73b0                png_sig
                0x00000000001e73f8                png_iCCP
                0x00000000001e7458                png_zTXt
                0x00000000001e73b8                png_IHDR
                0x00000000001e7448                png_tIME
                0x00000000001e73e0                png_cHRM
                0x00000000001e7410                png_pCAL
                0x00000000001e7438                png_sRGB
                0x00000000001e7440                png_tEXt
                0x00000000001e7420                png_pHYs
                0x00000000001e73c0                png_IDAT
                0x00000000001e7408                png_oFFs
 *fill*         0x00000000001e7477 0x303b8000000001
 .sdata         0x00000000001e7478        0x6 E:/nightly/rwsdk.sky/rwsdk/lib/sky2/librtpng.a(pngread.obj)
 *fill*         0x00000000001e747e 0x303b8000000002
 .sdata         0x00000000001e7480        0xe E:/nightly/rwsdk.sky/rwsdk/lib/sky2/librtpng.a(pngwutil.obj)
 *fill*         0x00000000001e748e 0x303b8000000002
 .sdata         0x00000000001e7490        0xc E:/nightly/rwsdk.sky/rwsdk/lib/sky2/librtpng.a(deflate.obj)
 *fill*         0x00000000001e749c 0x303b8000000004
 .sdata         0x00000000001e74a0        0xe E:/nightly/rwsdk.sky/rwsdk/lib/sky2/librtpng.a(zutil.obj)
 *fill*         0x00000000001e74ae 0x303b8000000002
 .sdata         0x00000000001e74b0        0x4 E:/nightly/rwsdk.sky/rwsdk/lib/sky2/librtpng.a(inflate.obj)
 .sdata         0x00000000001e74b4        0x8 E:/nightly/rwsdk.sky/rwsdk/lib/sky2/librtpng.a(inftrees.obj)
 .sdata         0x00000000001e74bc        0x4 E:/nightly/rwsdk.sky/rwsdk/lib/sky2/librpworld.a(bageomet.obj)
 .sdata         0x00000000001e74c0        0x4 E:/nightly/rwsdk.sky/rwsdk/lib/sky2/librpworld.a(balight.obj)
 .sdata         0x00000000001e74c4        0x4 E:/nightly/rwsdk.sky/rwsdk/lib/sky2/librpworld.a(bamateri.obj)
 .sdata         0x00000000001e74c8        0x4 E:/nightly/rwsdk.sky/rwsdk/lib/sky2/librpworld.a(bamatlst.obj)
 *fill*         0x00000000001e74cc 0x303b8000000004
 .sdata         0x00000000001e74d0       0x18 E:/nightly/rwsdk.sky/rwsdk/lib/sky2/librpworld.a(bamesh.obj)
                0x00000000001e74e0                meshModule
 .sdata         0x00000000001e74e8        0x4 E:/nightly/rwsdk.sky/rwsdk/lib/sky2/librpworld.a(bameshop.obj)
 .sdata         0x00000000001e74ec        0x4 E:/nightly/rwsdk.sky/rwsdk/lib/sky2/librpworld.a(basector.obj)
 .sdata         0x00000000001e74f0        0x4 E:/nightly/rwsdk.sky/rwsdk/lib/sky2/librpworld.a(baworld.obj)
 .sdata         0x00000000001e74f4       0x14 E:/nightly/rwsdk.sky/rwsdk/lib/sky2/librpworld.a(baworobj.obj)
 .sdata         0x00000000001e7508        0x4 E:/nightly/rwsdk.sky/rwsdk/lib/sky2/librpworld.a(bapipew.obj)
 *fill*         0x00000000001e750c 0x303b8000000004
 .sdata         0x00000000001e7510       0x14 E:/nightly/rwsdk.sky/rwsdk/lib/sky2/librpworld.a(nodeAtomicEnumerateLights.obj)
 *fill*         0x00000000001e7524 0x303b8000000004
 .sdata         0x00000000001e7528        0xc E:/nightly/rwsdk.sky/rwsdk/lib/sky2/librpworld.a(nodeAtomicInstance.obj)
 *fill*         0x00000000001e7534 0x303b8000000004
 .sdata         0x00000000001e7538        0xf E:/nightly/rwsdk.sky/rwsdk/lib/sky2/librpworld.a(nodeLight.obj)
 *fill*         0x00000000001e7547 0x303b8000000001
 .sdata         0x00000000001e7548        0x4 E:/nightly/rwsdk.sky/rwsdk/lib/sky2/librpworld.a(nodeMaterialScatter.obj)
 *fill*         0x00000000001e754c 0x303b8000000004
 .sdata         0x00000000001e7550        0xf E:/nightly/rwsdk.sky/rwsdk/lib/sky2/librpworld.a(nodePostLight.obj)
 *fill*         0x00000000001e755f 0x303b8000000001
 .sdata         0x00000000001e7560        0xf E:/nightly/rwsdk.sky/rwsdk/lib/sky2/librpworld.a(nodePreLight.obj)
 *fill*         0x00000000001e756f 0x303b8000000001
 .sdata         0x00000000001e7570       0x14 E:/nightly/rwsdk.sky/rwsdk/lib/sky2/librpworld.a(nodeWorldSectorEnumerateLights.obj)
 *fill*         0x00000000001e7584 0x303b8000000004
 .sdata         0x00000000001e7588       0x17 E:/nightly/rwsdk.sky/rwsdk/lib/sky2/librpworld.a(nodeWorldSectorInstance.obj)
 *fill*         0x00000000001e759f 0x303b8000000001
 .sdata         0x00000000001e75a0        0xc E:/nightly/rwsdk.sky/rwsdk/lib/sky2/librpworld.a(p2stdclsw.obj)
                0x00000000001e75a8                RxPS2AttributeSet
 .sdata         0x00000000001e75ac       0x10 E:/nightly/rwsdk.sky/rwsdk/lib/sky2/librpworld.a(wrldpipe.obj)
                0x00000000001e75b0                rwPip2GeometryOffset
                0x00000000001e75b8                rwPip2WorldSectorOffset
                0x00000000001e75b4                rwPip2AtomicOffset
 .sdata         0x00000000001e75bc        0x4 E:/nightly/rwsdk.sky/rwsdk/lib/sky2/librpworld.a(fastim3d.obj)
 .sdata         0x00000000001e75c0        0x8 E:/nightly/rwsdk.sky/rwsdk/lib/sky2/librpworld.a(native.obj)
 .sdata         0x00000000001e75c8        0xc E:/nightly/rwsdk.sky/rwsdk/lib/sky2/librpworld.a(nodeps2all.obj)
 *fill*         0x00000000001e75d4 0x303b8000000004
 .sdata         0x00000000001e75d8       0x4e E:/nightly/rwsdk.sky/rwsdk/lib/sky2/librpworld.a(ps2allmat.obj)
 *fill*         0x00000000001e7626 0x303b8000000002
 .sdata         0x00000000001e7628        0x4 E:/nightly/rwsdk.sky/rwsdk/lib/sky2/librpworld.a(objallinone.obj)
 .sdata         0x00000000001e762c        0x4 E:/nightly/rwsdk.sky/rwsdk/lib/sky2/librpworld.a(matinstance.obj)
 .sdata         0x00000000001e7630       0x18 E:/nightly/rwsdk.sky/rwsdk/lib/sky2/librpworld.a(ps2allim3d.obj)
                0x00000000001e7640                gIm3DMeshCache
 .sdata         0x00000000001e7648        0x4 E:/nightly/rwsdk.sky/rwsdk/lib/sky2/librpworld.a(ps2allatomic.obj)
 .sdata         0x00000000001e764c        0x4 E:/nightly/rwsdk.sky/rwsdk/lib/sky2/librpworld.a(ps2allsector.obj)
 .sdata         0x00000000001e7650        0x4 E:/nightly/rwsdk.sky/rwsdk/lib/sky2/librpworld.a(babinwor.obj)
 .sdata         0x00000000001e7654        0x4 E:/nightly/rwsdk.sky/rwsdk/lib/sky2/librpworld.a(baclump.obj)
 .sdata         0x00000000001e7658        0x4 E:/nightly/rwsdk.sky/rwsdk/lib/sky2/librpworld.a(matputil.obj)
 .sdata         0x00000000001e765c        0x4 E:/nightly/rwsdk.sky/rwsdk/lib/sky2/librpworld.a(nodeps2manager.obj)
 .sdata         0x00000000001e7660       0x10 E:/nightly/rwsdk.sky/rwsdk/lib/sky2/librpworld.a(nodeps2matbridge.obj)
 .sdata         0x00000000001e7670       0x60 E:/nightly/rwsdk.sky/rwsdk/lib/sky2/librpworld.a(nodeps2matinstance.obj)
 .sdata         0x00000000001e76d0       0x20 E:/nightly/rwsdk.sky/rwsdk/lib/sky2/librpworld.a(nodeps2objallinone.obj)
                0x00000000001e76ec                _skyLightQWordsWritten
                0x00000000001e76e8                _skyLightFillPos
 .sdata         0x00000000001e76f0        0x4 E:/nightly/rwsdk.sky/rwsdk/lib/sky2/librwcore.a(babinary.obj)
 *fill*         0x00000000001e76f4 0x303b8000000004
 .sdata         0x00000000001e76f8        0x9 E:/nightly/rwsdk.sky/rwsdk/lib/sky2/librwcore.a(babintex.obj)
 *fill*         0x00000000001e7701 0x303b8000000003
 .sdata         0x00000000001e7704        0x4 E:/nightly/rwsdk.sky/rwsdk/lib/sky2/librwcore.a(badevice.obj)
 .sdata         0x00000000001e7708        0x3 E:/nightly/rwsdk.sky/rwsdk/lib/sky2/librwcore.a(bafsys.obj)
 *fill*         0x00000000001e770b 0x303b8000000001
 .sdata         0x00000000001e770c        0x4 E:/nightly/rwsdk.sky/rwsdk/lib/sky2/librwcore.a(baresour.obj)
 .sdata         0x00000000001e7710       0x13 E:/nightly/rwsdk.sky/rwsdk/lib/sky2/librwcore.a(bastream.obj)
 *fill*         0x00000000001e7723 0x303b8000000005
 .sdata         0x00000000001e7728       0x17 E:/nightly/rwsdk.sky/rwsdk/lib/sky2/librwcore.a(batextur.obj)
 *fill*         0x00000000001e773f 0x303b8000000001
 .sdata         0x00000000001e7740       0x10 E:/nightly/rwsdk.sky/rwsdk/lib/sky2/librwcore.a(baim3d.obj)
                0x00000000001e7748                _rwIm3DModule
                0x00000000001e7740                _rwIm3DGlobals
 .sdata         0x00000000001e7750        0x4 E:/nightly/rwsdk.sky/rwsdk/lib/sky2/librwcore.a(bapipe.obj)
                0x00000000001e7750                _rxPipelineGlobalsOffset
 *fill*         0x00000000001e7754 0x303b8000000004
 .sdata         0x00000000001e7758       0x10 E:/nightly/rwsdk.sky/rwsdk/lib/sky2/librwcore.a(nodeClipLine.obj)
 .sdata         0x00000000001e7768       0x10 E:/nightly/rwsdk.sky/rwsdk/lib/sky2/librwcore.a(nodeClipTriangle.obj)
 .sdata         0x00000000001e7778        0x8 E:/nightly/rwsdk.sky/rwsdk/lib/sky2/librwcore.a(nodeCullTriangle.obj)
 .sdata         0x00000000001e7780        0x4 E:/nightly/rwsdk.sky/rwsdk/lib/sky2/librwcore.a(nodeImmInstance.obj)
 *fill*         0x00000000001e7784 0x303b8000000004
 .sdata         0x00000000001e7788       0x18 E:/nightly/rwsdk.sky/rwsdk/lib/sky2/librwcore.a(nodeImmMangleLineIndices.obj)
 .sdata         0x00000000001e77a0       0x18 E:/nightly/rwsdk.sky/rwsdk/lib/sky2/librwcore.a(nodeImmMangleTriangleIndices.obj)
 .sdata         0x00000000001e77b8        0xc E:/nightly/rwsdk.sky/rwsdk/lib/sky2/librwcore.a(p2core.obj)
                0x00000000001e77bc                RxPipelineInstanced
                0x00000000001e77c0                _rxHeapGlobal
                0x00000000001e77b8                _rwRxHeapInitialSize
 *fill*         0x00000000001e77c4 0x303b8000000004
 .sdata         0x00000000001e77c8        0x4 E:/nightly/rwsdk.sky/rwsdk/lib/sky2/librwcore.a(p2renderstate.obj)
 *fill*         0x00000000001e77cc 0x303b8000000004
 .sdata         0x00000000001e77d0       0xa4 E:/nightly/rwsdk.sky/rwsdk/lib/sky2/librwcore.a(badma.obj)
                0x00000000001e7820                sweDebugMark
                0x00000000001e7868                sweLocalPacketSize
                0x00000000001e7840                sweLocalPacket
                0x00000000001e7834                sweRealLocalPacketBase
                0x00000000001e784c                sweCurrentBase
                0x00000000001e77ec                sweFlipPending
                0x00000000001e7850                sweChainEnd
                0x00000000001e77f8                sweFrameRenderCount
                0x00000000001e77f4                sweNumFlipsInQueue
                0x00000000001e785c                sweCurrentBlockBase
                0x00000000001e7828                swePreAllocCount
                0x00000000001e77dc                sweDontFlushRefs
                0x00000000001e77d0                sweMaxFlips
                0x00000000001e7844                __localLocalPacketPointer
                0x00000000001e7818                sweCurrentHalfOffset
                0x00000000001e7800                sweFrameRenderCount2
                0x00000000001e7860                sweNumDispatched
                0x00000000001e7838                sweLocalPacketBase
                0x00000000001e7848                circAllocator
                0x00000000001e786c                swePacketToAddFirst
                0x00000000001e7824                swePreAllocSize
                0x00000000001e7854                sweNumAsyncDispatched
                0x00000000001e7858                sweChainBase
                0x00000000001e77f0                sweAutoFlip
                0x00000000001e782c                swePreAllocLimit
                0x00000000001e7864                sweNumHandler
                0x00000000001e7830                sweLocalPacketState
                0x00000000001e783c                sweLocalPacketHigh
                0x00000000001e7814                sweUseHalfOffset
                0x00000000001e7870                swePacketToAddFirstChannel
 *fill*         0x00000000001e7874 0x303b8000000004
 .sdata         0x00000000001e7878       0xe4 E:/nightly/rwsdk.sky/rwsdk/lib/sky2/librwcore.a(basky.obj)
                0x00000000001e78e0                skyDisplayRaster
                0x00000000001e7928                skyFSAA0RenderHeight
                0x00000000001e7944                skyCameraExt
                0x00000000001e78e4                skyDrawRaster
                0x00000000001e7908                skyXOff
                0x00000000001e7920                skyFSAA0VisibleWidth
                0x00000000001e78a8                skyFrame_1
                0x00000000001e7910                skyYOff
                0x00000000001e7954                gSkyCullState
                0x00000000001e7938                dgGGlobals
                0x00000000001e78d0                skyTex1_1
                0x00000000001e787c                skyVideoMode
                0x00000000001e7948                skyTextureRaster
                0x00000000001e7884                needCache
                0x00000000001e7924                skyFSAA0RenderWidth
                0x00000000001e789c                skySuspended
                0x00000000001e7958                fogTable
                0x00000000001e78b8                skyXyoffset_1
                0x00000000001e78a0                skyZbuf_1
                0x00000000001e7940                skyRasterExt
                0x00000000001e794c                skyAlphaTex
                0x00000000001e78f8                skyMaxMipLevels
                0x00000000001e78e8                skyPrim_State
                0x00000000001e78d8                skyAlpha_1
                0x00000000001e78c8                skyClamp_1
                0x00000000001e792c                skyFSAA0FrameCount
                0x00000000001e78fc                skyFrameBit
                0x00000000001e78b0                skyTest_1
                0x00000000001e7880                cacheOpened
                0x00000000001e78c0                skyFogcol
                0x00000000001e7950                skyVertexAlpha
 .sdata         0x00000000001e795c        0x8 E:/nightly/rwsdk.sky/rwsdk/lib/sky2/librwcore.a(dmaalloc.obj)
                0x00000000001e7960                sweCircAllocBlockSize
 .sdata         0x00000000001e7964        0x4 E:/nightly/rwsdk.sky/rwsdk/lib/sky2/librwcore.a(skyblit.obj)
 .sdata         0x00000000001e7968       0x34 E:/nightly/rwsdk.sky/rwsdk/lib/sky2/librwcore.a(skyinst.obj)
                0x00000000001e796c                overloadWorldPipes
                0x00000000001e7978                skyUploadedCode
                0x00000000001e7980                skyUserSwitch2
                0x00000000001e7974                skyTransType
                0x00000000001e7988                skyTLClipperMode
                0x00000000001e7998                farFogPlane
                0x00000000001e7984                skyTSClipperMode
                0x00000000001e797c                skyUserSwitch1
                0x00000000001e7970                unOverloadWorldPipes
                0x00000000001e7994                useFarClip
 .sdata         0x00000000001e799c        0xc E:/nightly/rwsdk.sky/rwsdk/lib/sky2/librwcore.a(texcache.obj)
                0x00000000001e79a0                skyGNumTexMemBlocks

.sbss           0x00000000001e7a00      0x15c
                0x00000000001e7a00                _fbss=.
 *(.sbss)
 .sbss          0x00000000001e7a00        0x4 obj/sky2/main.o
 *fill*         0x00000000001e7a04 0x30344800000004
 .sbss          0x00000000001e7a08        0x9 obj/sky2/menu.o
 *fill*         0x00000000001e7a11 0x30344800000003
 .sbss          0x00000000001e7a14       0x1c obj/sky2/sky.o
 .sbss          0x00000000001e7a30        0x8 E:/nightly/rwsdk.sky/rwsdk/lib/sky2/librpworld.a(bageomet.obj)
 .sbss          0x00000000001e7a38        0x8 E:/nightly/rwsdk.sky/rwsdk/lib/sky2/librpworld.a(balight.obj)
 .sbss          0x00000000001e7a40        0x8 E:/nightly/rwsdk.sky/rwsdk/lib/sky2/librpworld.a(bamateri.obj)
 .sbss          0x00000000001e7a48        0x8 E:/nightly/rwsdk.sky/rwsdk/lib/sky2/librpworld.a(basector.obj)
 .sbss          0x00000000001e7a50        0x8 E:/nightly/rwsdk.sky/rwsdk/lib/sky2/librpworld.a(baworld.obj)
 .sbss          0x00000000001e7a58        0x8 E:/nightly/rwsdk.sky/rwsdk/lib/sky2/librpworld.a(baworobj.obj)
 .sbss          0x00000000001e7a60        0x8 E:/nightly/rwsdk.sky/rwsdk/lib/sky2/librpworld.a(babinwor.obj)
 .sbss          0x00000000001e7a68        0x8 E:/nightly/rwsdk.sky/rwsdk/lib/sky2/librpworld.a(baclump.obj)
 .sbss          0x00000000001e7a70        0x8 E:/nightly/rwsdk.sky/rwsdk/lib/sky2/librwcore.a(bacamera.obj)
 .sbss          0x00000000001e7a78        0x8 E:/nightly/rwsdk.sky/rwsdk/lib/sky2/librwcore.a(baerr.obj)
 .sbss          0x00000000001e7a80        0x8 E:/nightly/rwsdk.sky/rwsdk/lib/sky2/librwcore.a(baframe.obj)
 .sbss          0x00000000001e7a88        0x8 E:/nightly/rwsdk.sky/rwsdk/lib/sky2/librwcore.a(baimage.obj)
 .sbss          0x00000000001e7a90        0x8 E:/nightly/rwsdk.sky/rwsdk/lib/sky2/librwcore.a(bamatrix.obj)
 .sbss          0x00000000001e7a98        0x8 E:/nightly/rwsdk.sky/rwsdk/lib/sky2/librwcore.a(bamemory.obj)
 .sbss          0x00000000001e7aa0        0x8 E:/nightly/rwsdk.sky/rwsdk/lib/sky2/librwcore.a(baraster.obj)
 .sbss          0x00000000001e7aa8        0x8 E:/nightly/rwsdk.sky/rwsdk/lib/sky2/librwcore.a(baresour.obj)
 .sbss          0x00000000001e7ab0        0x8 E:/nightly/rwsdk.sky/rwsdk/lib/sky2/librwcore.a(bastream.obj)
 .sbss          0x00000000001e7ab8        0x8 E:/nightly/rwsdk.sky/rwsdk/lib/sky2/librwcore.a(batextur.obj)
 .sbss          0x00000000001e7ac0        0x4 E:/nightly/rwsdk.sky/rwsdk/lib/sky2/librwcore.a(batkreg.obj)
 *fill*         0x00000000001e7ac4 0x30344800000004
 .sbss          0x00000000001e7ac8        0x8 E:/nightly/rwsdk.sky/rwsdk/lib/sky2/librwcore.a(bavector.obj)
 .sbss          0x00000000001e7ad0       0x38 E:/nightly/rwsdk.sky/rwsdk/lib/sky2/librwcore.a(badma.obj)
 .sbss          0x00000000001e7b08       0x18 E:/nightly/rwsdk.sky/rwsdk/lib/sky2/librwcore.a(basky.obj)
 .sbss          0x00000000001e7b20       0x20 E:/nightly/rwsdk.sky/rwsdk/lib/sky2/librwcore.a(skyblit.obj)
 .sbss          0x00000000001e7b40        0x8 E:/nightly/rwsdk.sky/rwsdk/lib/sky2/librwcore.a(bacolor.obj)
 *(.scommon)
 .scommon       0x00000000001e7b48       0x10 E:/usr/local/sce/ee/gcc/lib/gcc-lib/ee\2.95.2\libgcc.a(_ctors.o)
                                          0x0 (size before relaxing)
                0x00000000001e7b48                __CTOR_LIST__
                0x00000000001e7b50                __DTOR_LIST__
 .scommon       0x00000000001e7b58        0x4 E:/usr/local/sce/ee/gcc/lib/gcc-lib/ee\2.95.2\../../../../ee\lib\libc.a(sbrkr.o)
                                          0x0 (size before relaxing)
                0x00000000001e7b58                errno

.bss            0x00000000001e7b80     0x6140
 *(.bss)
 .bss           0x00000000001e7b80      0x144 crt0.o
 *fill*         0x00000000001e7cc4 0x30353800000004
 .bss           0x00000000001e7cc8       0x10 obj/sky2/camera.o
 .bss           0x00000000001e7cd8      0x400 obj/sky2/menu.o
 *fill*         0x00000000001e80d8 0x30353800000028
 .bss           0x00000000001e8100      0x280 obj/sky2/sky.o
 .bss           0x00000000001e8380      0x10c obj/sky2/skyfs.o
 *fill*         0x00000000001e848c 0x30353800000004
 .bss           0x00000000001e8490        0xc E:/nightly/rwsdk.sky/rwsdk/lib/sky2/librpworld.a(baworld.obj)
 *fill*         0x00000000001e849c 0x30353800000004
 .bss           0x00000000001e84a0       0x1c E:/nightly/rwsdk.sky/rwsdk/lib/sky2/librpworld.a(ps2allim3d.obj)
 *fill*         0x00000000001e84bc 0x30353800000004
 .bss           0x00000000001e84c0      0x200 E:/nightly/rwsdk.sky/rwsdk/lib/sky2/librpworld.a(nodeps2objallinone.obj)
 .bss           0x00000000001e86c0      0x500 E:/nightly/rwsdk.sky/rwsdk/lib/sky2/librwcore.a(badma.obj)
 .bss           0x00000000001e8bc0      0x5f0 E:/nightly/rwsdk.sky/rwsdk/lib/sky2/librwcore.a(basky.obj)
 .bss           0x00000000001e91b0       0x10 E:/nightly/rwsdk.sky/rwsdk/lib/sky2/librwcore.a(skyblit.obj)
 .bss           0x00000000001e91c0       0x40 E:/nightly/rwsdk.sky/rwsdk/lib/sky2/librwcore.a(texcache.obj)
 .bss           0x00000000001e9200      0x800 E:/nightly/rwsdk.sky/rwsdk/lib/sky2/librwcore.a(palquant.obj)
 .bss           0x00000000001e9a00      0x3c0 E:/usr/local/sce/ee/lib/libpad.a(libpad.o)
 .bss           0x00000000001e9dc0        0x4 E:/usr/local/sce/ee/gcc/lib/gcc-lib/ee\2.95.2\libgcc.a(__main.o)
 *fill*         0x00000000001e9dc4 0x30353800000004
 .bss           0x00000000001e9dc8       0x18 E:/usr/local/sce/ee/gcc/lib/gcc-lib/ee\2.95.2\libgcc.a(dp-bit.o)
 .bss           0x00000000001e9de0       0x10 E:/usr/local/sce/ee/gcc/lib/gcc-lib/ee\2.95.2\libgcc.a(fp-bit.o)
 *fill*         0x00000000001e9df0 0x30353800000010
 .bss           0x00000000001e9e00      0x3c0 E:/usr/local/sce/ee/lib\libkernl.a(tty.o)
 .bss           0x00000000001ea1c0       0x80 E:/usr/local/sce/ee/lib\libkernl.a(kprintf.o)
 .bss           0x00000000001ea240     0x182c E:/usr/local/sce/ee/lib\libkernl.a(sifrpc.o)
 *fill*         0x00000000001eba6c 0x30353800000014
 .bss           0x00000000001eba80     0x1380 E:/usr/local/sce/ee/lib\libkernl.a(filestub.o)
 .bss           0x00000000001ece00      0x1c0 E:/usr/local/sce/ee/lib\libkernl.a(iopheap.o)
 .bss           0x00000000001ecfc0      0x22c E:/usr/local/sce/ee/lib\libkernl.a(eeloadfile.o)
 *fill*         0x00000000001ed1ec 0x30353800000004
 .bss           0x00000000001ed1f0      0x810 E:/usr/local/sce/ee/lib\libkernl.a(thread.o)
 .bss           0x00000000001eda00       0x24 E:/usr/local/sce/ee/lib\libkernl.a(deci2.o)
 *fill*         0x00000000001eda24 0x3035380000001c
 .bss           0x00000000001eda40      0x280 E:/usr/local/sce/ee/lib\libkernl.a(sifcmd.o)

.vubss          0x00000000001edcc0        0x0
                0x00000000001edcc0                end=.
                0x00000000001edcc0                _end=.

.spad
 crt0.o(.spad)
 *(.spad)
OUTPUT(world_sky2.elf elf32-littlemips)

.mdebug         0x00000000001edcc0    0x92304
 .mdebug        0x00000000001edcc0      0x404 crt0.o
 .mdebug        0x00000000001ee0c4      0xb98 obj/sky2/main.o
 .mdebug        0x00000000001eec5c      0x2f8 obj/sky2/events.o
 .mdebug        0x00000000001eef54      0x960 obj/sky2/camera.o
 .mdebug        0x00000000001ef8b4     0x1674 obj/sky2/menu.o
 .mdebug        0x00000000001f0f28      0x66c obj/sky2/world.o
 .mdebug        0x00000000001f1594     0x1c20 obj/sky2/skeleton.o
 .mdebug        0x00000000001f31b4     0x1d34 obj/sky2/sky.o
 .mdebug        0x00000000001f4ee8      0xad0 obj/sky2/skyfs.o
 .mdebug        0x00000000001f59b8      0xce0 E:/nightly/rwsdk.sky/rwsdk/lib/sky2/librplogo.a(rplogo.obj)
 .mdebug        0x00000000001f6698     0x1608 E:/nightly/rwsdk.sky/rwsdk/lib/sky2/librtimport.a(rtimport.obj)
 .mdebug        0x00000000001f7ca0     0x1110 E:/nightly/rwsdk.sky/rwsdk/lib/sky2/librtimport.a(nhscond.obj)
 .mdebug        0x00000000001f8db0     0x11c8 E:/nightly/rwsdk.sky/rwsdk/lib/sky2/librtimport.a(nhssplit.obj)
 .mdebug        0x00000000001f9f78      0x298 E:/nightly/rwsdk.sky/rwsdk/lib/sky2/librtimport.a(nhsstats.obj)
 .mdebug        0x00000000001fa210      0x930 E:/nightly/rwsdk.sky/rwsdk/lib/sky2/librtimport.a(nhsutil.obj)
 .mdebug        0x00000000001fab40      0xb84 E:/nightly/rwsdk.sky/rwsdk/lib/sky2/librtimport.a(nhswing.obj)
 .mdebug        0x00000000001fb6c4      0x5f4 E:/nightly/rwsdk.sky/rwsdk/lib/sky2/librtimport.a(nhsworld.obj)
 .mdebug        0x00000000001fbcb8      0x330 E:/nightly/rwsdk.sky/rwsdk/lib/sky2/librtimport.a(nhsbary.obj)
 .mdebug        0x00000000001fbfe8      0x8e4 E:/nightly/rwsdk.sky/rwsdk/lib/sky2/librtimport.a(nhssmplx.obj)
 .mdebug        0x00000000001fc8cc      0x644 E:/nightly/rwsdk.sky/rwsdk/lib/sky2/librtcharse.a(chrprint.obj)
 .mdebug        0x00000000001fcf10      0x7e8 E:/nightly/rwsdk.sky/rwsdk/lib/sky2/librtcharse.a(rtcharse.obj)
 .mdebug        0x00000000001fd6f8      0x70c E:/nightly/rwsdk.sky/rwsdk/lib/sky2/librtbmp.a(rtbmp.obj)
 .mdebug        0x00000000001fde04      0xb78 E:/nightly/rwsdk.sky/rwsdk/lib/sky2/librtpng.a(rtpng.obj)
 .mdebug        0x00000000001fe97c     0x11d4 E:/nightly/rwsdk.sky/rwsdk/lib/sky2/librtpng.a(png.obj)
 .mdebug        0x00000000001ffb50      0x5d8 E:/nightly/rwsdk.sky/rwsdk/lib/sky2/librtpng.a(pngerror.obj)
 .mdebug        0x0000000000200128     0x18d4 E:/nightly/rwsdk.sky/rwsdk/lib/sky2/librtpng.a(pngget.obj)
 .mdebug        0x00000000002019fc      0x820 E:/nightly/rwsdk.sky/rwsdk/lib/sky2/librtpng.a(pngmem.obj)
 .mdebug        0x000000000020221c     0x1504 E:/nightly/rwsdk.sky/rwsdk/lib/sky2/librtpng.a(pngread.obj)
 .mdebug        0x0000000000203720      0x2a8 E:/nightly/rwsdk.sky/rwsdk/lib/sky2/librtpng.a(pngrio.obj)
 .mdebug        0x00000000002039c8     0x15cc E:/nightly/rwsdk.sky/rwsdk/lib/sky2/librtpng.a(pngrtran.obj)
 .mdebug        0x0000000000204f94     0x1884 E:/nightly/rwsdk.sky/rwsdk/lib/sky2/librtpng.a(pngrutil.obj)
 .mdebug        0x0000000000206818     0x11f4 E:/nightly/rwsdk.sky/rwsdk/lib/sky2/librtpng.a(pngset.obj)
 .mdebug        0x0000000000207a0c      0xb3c E:/nightly/rwsdk.sky/rwsdk/lib/sky2/librtpng.a(pngtrans.obj)
 .mdebug        0x0000000000208548      0x324 E:/nightly/rwsdk.sky/rwsdk/lib/sky2/librtpng.a(pngwio.obj)
 .mdebug        0x000000000020886c     0x16ec E:/nightly/rwsdk.sky/rwsdk/lib/sky2/librtpng.a(pngwrite.obj)
 .mdebug        0x0000000000209f58      0x500 E:/nightly/rwsdk.sky/rwsdk/lib/sky2/librtpng.a(pngwtran.obj)
 .mdebug        0x000000000020a458     0x1908 E:/nightly/rwsdk.sky/rwsdk/lib/sky2/librtpng.a(pngwutil.obj)
 .mdebug        0x000000000020bd60      0xa28 E:/nightly/rwsdk.sky/rwsdk/lib/sky2/librtpng.a(deflate.obj)
 .mdebug        0x000000000020c788      0xcb4 E:/nightly/rwsdk.sky/rwsdk/lib/sky2/librtpng.a(trees.obj)
 .mdebug        0x000000000020d43c      0x384 E:/nightly/rwsdk.sky/rwsdk/lib/sky2/librtpng.a(zutil.obj)
 .mdebug        0x000000000020d7c0      0x6b4 E:/nightly/rwsdk.sky/rwsdk/lib/sky2/librtpng.a(inflate.obj)
 .mdebug        0x000000000020de74      0x60c E:/nightly/rwsdk.sky/rwsdk/lib/sky2/librtpng.a(infblock.obj)
 .mdebug        0x000000000020e480      0x510 E:/nightly/rwsdk.sky/rwsdk/lib/sky2/librtpng.a(inftrees.obj)
 .mdebug        0x000000000020e990      0x358 E:/nightly/rwsdk.sky/rwsdk/lib/sky2/librtpng.a(infcodes.obj)
 .mdebug        0x000000000020ece8      0x224 E:/nightly/rwsdk.sky/rwsdk/lib/sky2/librtpng.a(infutil.obj)
 .mdebug        0x000000000020ef0c      0x208 E:/nightly/rwsdk.sky/rwsdk/lib/sky2/librtpng.a(inffast.obj)
 .mdebug        0x000000000020f114      0x28c E:/nightly/rwsdk.sky/rwsdk/lib/sky2/librtpng.a(crc32.obj)
 .mdebug        0x000000000020f3a0      0x1fc E:/nightly/rwsdk.sky/rwsdk/lib/sky2/librtpng.a(adler32.obj)
 .mdebug        0x000000000020f59c     0x21b8 E:/nightly/rwsdk.sky/rwsdk/lib/sky2/librpworld.a(bageomet.obj)
 .mdebug        0x0000000000211754     0x144c E:/nightly/rwsdk.sky/rwsdk/lib/sky2/librpworld.a(balight.obj)
 .mdebug        0x0000000000212ba0     0x13c0 E:/nightly/rwsdk.sky/rwsdk/lib/sky2/librpworld.a(bamateri.obj)
 .mdebug        0x0000000000213f60      0x9f4 E:/nightly/rwsdk.sky/rwsdk/lib/sky2/librpworld.a(bamatlst.obj)
 .mdebug        0x0000000000214954      0xb54 E:/nightly/rwsdk.sky/rwsdk/lib/sky2/librpworld.a(bamesh.obj)
 .mdebug        0x00000000002154a8     0x1044 E:/nightly/rwsdk.sky/rwsdk/lib/sky2/librpworld.a(bameshop.obj)
 .mdebug        0x00000000002164ec      0xad8 E:/nightly/rwsdk.sky/rwsdk/lib/sky2/librpworld.a(basector.obj)
 .mdebug        0x0000000000216fc4     0x2238 E:/nightly/rwsdk.sky/rwsdk/lib/sky2/librpworld.a(baworld.obj)
 .mdebug        0x00000000002191fc     0x2588 E:/nightly/rwsdk.sky/rwsdk/lib/sky2/librpworld.a(baworobj.obj)
 .mdebug        0x000000000021b784     0x1804 E:/nightly/rwsdk.sky/rwsdk/lib/sky2/librpworld.a(bapipew.obj)
 .mdebug        0x000000000021cf88      0x794 E:/nightly/rwsdk.sky/rwsdk/lib/sky2/librpworld.a(nodeAtomicEnumerateLights.obj)
 .mdebug        0x000000000021d71c      0x96c E:/nightly/rwsdk.sky/rwsdk/lib/sky2/librpworld.a(nodeAtomicInstance.obj)
 .mdebug        0x000000000021e088      0xa1c E:/nightly/rwsdk.sky/rwsdk/lib/sky2/librpworld.a(nodeLight.obj)
 .mdebug        0x000000000021eaa4      0x588 E:/nightly/rwsdk.sky/rwsdk/lib/sky2/librpworld.a(nodeMaterialScatter.obj)
 .mdebug        0x000000000021f02c      0x5c4 E:/nightly/rwsdk.sky/rwsdk/lib/sky2/librpworld.a(nodePostLight.obj)
 .mdebug        0x000000000021f5f0      0x5b4 E:/nightly/rwsdk.sky/rwsdk/lib/sky2/librpworld.a(nodePreLight.obj)
 .mdebug        0x000000000021fba4      0x6d4 E:/nightly/rwsdk.sky/rwsdk/lib/sky2/librpworld.a(nodeWorldSectorEnumerateLights.obj)
 .mdebug        0x0000000000220278      0x990 E:/nightly/rwsdk.sky/rwsdk/lib/sky2/librpworld.a(nodeWorldSectorInstance.obj)
 .mdebug        0x0000000000220c08      0x6b4 E:/nightly/rwsdk.sky/rwsdk/lib/sky2/librpworld.a(p2stdclsw.obj)
 .mdebug        0x00000000002212bc     0x1e54 E:/nightly/rwsdk.sky/rwsdk/lib/sky2/librpworld.a(wrldpipe.obj)
 .mdebug        0x0000000000223110      0xe10 E:/nightly/rwsdk.sky/rwsdk/lib/sky2/librpworld.a(fastim3d.obj)
 .mdebug        0x0000000000223f20      0x53c E:/nightly/rwsdk.sky/rwsdk/lib/sky2/librpworld.a(native.obj)
 .mdebug        0x000000000022445c      0x6c4 E:/nightly/rwsdk.sky/rwsdk/lib/sky2/librpworld.a(nodeps2all.obj)
 .mdebug        0x0000000000224b20      0xb44 E:/nightly/rwsdk.sky/rwsdk/lib/sky2/librpworld.a(ps2allmat.obj)
 .mdebug        0x0000000000225664      0x36c E:/nightly/rwsdk.sky/rwsdk/lib/sky2/librpworld.a(objallinone.obj)
 .mdebug        0x00000000002259d0      0x588 E:/nightly/rwsdk.sky/rwsdk/lib/sky2/librpworld.a(matinstance.obj)
 .mdebug        0x0000000000225f58     0x1140 E:/nightly/rwsdk.sky/rwsdk/lib/sky2/librpworld.a(ps2allim3d.obj)
 .mdebug        0x0000000000227098     0x159c E:/nightly/rwsdk.sky/rwsdk/lib/sky2/librpworld.a(ps2allatomic.obj)
 .mdebug        0x0000000000228634      0xb04 E:/nightly/rwsdk.sky/rwsdk/lib/sky2/librpworld.a(ps2allsector.obj)
 .mdebug        0x0000000000229138      0xf04 E:/nightly/rwsdk.sky/rwsdk/lib/sky2/librpworld.a(babinwor.obj)
 .mdebug        0x000000000022a03c     0x2574 E:/nightly/rwsdk.sky/rwsdk/lib/sky2/librpworld.a(baclump.obj)
 .mdebug        0x000000000022c5b0      0x370 E:/nightly/rwsdk.sky/rwsdk/lib/sky2/librpworld.a(matputil.obj)
 .mdebug        0x000000000022c920     0x12b4 E:/nightly/rwsdk.sky/rwsdk/lib/sky2/librpworld.a(nodeps2manager.obj)
 .mdebug        0x000000000022dbd4      0xc98 E:/nightly/rwsdk.sky/rwsdk/lib/sky2/librpworld.a(nodeps2matbridge.obj)
 .mdebug        0x000000000022e86c      0xe68 E:/nightly/rwsdk.sky/rwsdk/lib/sky2/librpworld.a(nodeps2matinstance.obj)
 .mdebug        0x000000000022f6d4     0x1274 E:/nightly/rwsdk.sky/rwsdk/lib/sky2/librpworld.a(nodeps2objallinone.obj)
 .mdebug        0x0000000000230948      0x3a0 E:/nightly/rwsdk.sky/rwsdk/lib/sky2/librwcore.a(babbox.obj)
 .mdebug        0x0000000000230ce8      0xbc0 E:/nightly/rwsdk.sky/rwsdk/lib/sky2/librwcore.a(babinary.obj)
 .mdebug        0x00000000002318a8      0xa18 E:/nightly/rwsdk.sky/rwsdk/lib/sky2/librwcore.a(babinfrm.obj)
 .mdebug        0x00000000002322c0     0x120c E:/nightly/rwsdk.sky/rwsdk/lib/sky2/librwcore.a(babintex.obj)
 .mdebug        0x00000000002334cc     0x1a70 E:/nightly/rwsdk.sky/rwsdk/lib/sky2/librwcore.a(bacamera.obj)
 .mdebug        0x0000000000234f3c     0x1690 E:/nightly/rwsdk.sky/rwsdk/lib/sky2/librwcore.a(badevice.obj)
 .mdebug        0x00000000002365cc      0x43c E:/nightly/rwsdk.sky/rwsdk/lib/sky2/librwcore.a(baerr.obj)
 .mdebug        0x0000000000236a08     0x1634 E:/nightly/rwsdk.sky/rwsdk/lib/sky2/librwcore.a(baframe.obj)
 .mdebug        0x000000000023803c      0x494 E:/nightly/rwsdk.sky/rwsdk/lib/sky2/librwcore.a(bafsys.obj)
 .mdebug        0x00000000002384d0     0x1b74 E:/nightly/rwsdk.sky/rwsdk/lib/sky2/librwcore.a(baimage.obj)
 .mdebug        0x000000000023a044      0x640 E:/nightly/rwsdk.sky/rwsdk/lib/sky2/librwcore.a(baimmedi.obj)
 .mdebug        0x000000000023a684      0x658 E:/nightly/rwsdk.sky/rwsdk/lib/sky2/librwcore.a(baimras.obj)
 .mdebug        0x000000000023acdc      0x8f0 E:/nightly/rwsdk.sky/rwsdk/lib/sky2/librwcore.a(balist.obj)
 .mdebug        0x000000000023b5cc     0x10d0 E:/nightly/rwsdk.sky/rwsdk/lib/sky2/librwcore.a(bamatrix.obj)
 .mdebug        0x000000000023c69c      0x9f4 E:/nightly/rwsdk.sky/rwsdk/lib/sky2/librwcore.a(bamemory.obj)
 .mdebug        0x000000000023d090      0xfcc E:/nightly/rwsdk.sky/rwsdk/lib/sky2/librwcore.a(baraster.obj)
 .mdebug        0x000000000023e05c      0x4c0 E:/nightly/rwsdk.sky/rwsdk/lib/sky2/librwcore.a(baresamp.obj)
 .mdebug        0x000000000023e51c      0x89c E:/nightly/rwsdk.sky/rwsdk/lib/sky2/librwcore.a(baresour.obj)
 .mdebug        0x000000000023edb8      0x684 E:/nightly/rwsdk.sky/rwsdk/lib/sky2/librwcore.a(bastream.obj)
 .mdebug        0x000000000023f43c      0x5e0 E:/nightly/rwsdk.sky/rwsdk/lib/sky2/librwcore.a(basync.obj)
 .mdebug        0x000000000023fa1c     0x25f0 E:/nightly/rwsdk.sky/rwsdk/lib/sky2/librwcore.a(batextur.obj)
 .mdebug        0x000000000024200c      0x628 E:/nightly/rwsdk.sky/rwsdk/lib/sky2/librwcore.a(batkbin.obj)
 .mdebug        0x0000000000242634      0x9c4 E:/nightly/rwsdk.sky/rwsdk/lib/sky2/librwcore.a(batkreg.obj)
 .mdebug        0x0000000000242ff8      0x2e4 E:/nightly/rwsdk.sky/rwsdk/lib/sky2/librwcore.a(batypehf.obj)
 .mdebug        0x00000000002432dc      0xa3c E:/nightly/rwsdk.sky/rwsdk/lib/sky2/librwcore.a(bavector.obj)
 .mdebug        0x0000000000243d18      0x544 E:/nightly/rwsdk.sky/rwsdk/lib/sky2/librwcore.a(resmem.obj)
 .mdebug        0x000000000024425c      0x5e8 E:/nightly/rwsdk.sky/rwsdk/lib/sky2/librwcore.a(rwstring.obj)
 .mdebug        0x0000000000244844     0x1150 E:/nightly/rwsdk.sky/rwsdk/lib/sky2/librwcore.a(baim3d.obj)
 .mdebug        0x0000000000245994      0x428 E:/nightly/rwsdk.sky/rwsdk/lib/sky2/librwcore.a(bapipe.obj)
 .mdebug        0x0000000000245dbc      0xb4c E:/nightly/rwsdk.sky/rwsdk/lib/sky2/librwcore.a(nodeClipLine.obj)
 .mdebug        0x0000000000246908      0xbbc E:/nightly/rwsdk.sky/rwsdk/lib/sky2/librwcore.a(nodeClipTriangle.obj)
 .mdebug        0x00000000002474c4      0x79c E:/nightly/rwsdk.sky/rwsdk/lib/sky2/librwcore.a(nodeCullTriangle.obj)
 .mdebug        0x0000000000247c60      0x634 E:/nightly/rwsdk.sky/rwsdk/lib/sky2/librwcore.a(nodeImmInstance.obj)
 .mdebug        0x0000000000248294      0x688 E:/nightly/rwsdk.sky/rwsdk/lib/sky2/librwcore.a(nodeImmMangleLineIndices.obj)
 .mdebug        0x000000000024891c      0x660 E:/nightly/rwsdk.sky/rwsdk/lib/sky2/librwcore.a(nodeImmMangleTriangleIndices.obj)
 .mdebug        0x0000000000248f7c      0x740 E:/nightly/rwsdk.sky/rwsdk/lib/sky2/librwcore.a(nodeImmRenderSetup.obj)
 .mdebug        0x00000000002496bc      0x4b0 E:/nightly/rwsdk.sky/rwsdk/lib/sky2/librwcore.a(nodeImmStash.obj)
 .mdebug        0x0000000000249b6c      0x5fc E:/nightly/rwsdk.sky/rwsdk/lib/sky2/librwcore.a(nodeSubmitLine.obj)
 .mdebug        0x000000000024a168      0x620 E:/nightly/rwsdk.sky/rwsdk/lib/sky2/librwcore.a(nodeSubmitTriangle.obj)
 .mdebug        0x000000000024a788      0x7a0 E:/nightly/rwsdk.sky/rwsdk/lib/sky2/librwcore.a(nodeTransform.obj)
 .mdebug        0x000000000024af28      0x390 E:/nightly/rwsdk.sky/rwsdk/lib/sky2/librwcore.a(p2altmdl.obj)
 .mdebug        0x000000000024b2b8      0xbf0 E:/nightly/rwsdk.sky/rwsdk/lib/sky2/librwcore.a(p2clpcom.obj)
 .mdebug        0x000000000024bea8     0x1114 E:/nightly/rwsdk.sky/rwsdk/lib/sky2/librwcore.a(p2core.obj)
 .mdebug        0x000000000024cfbc     0x1164 E:/nightly/rwsdk.sky/rwsdk/lib/sky2/librwcore.a(p2define.obj)
 .mdebug        0x000000000024e120      0x69c E:/nightly/rwsdk.sky/rwsdk/lib/sky2/librwcore.a(p2dep.obj)
 .mdebug        0x000000000024e7bc      0x5e0 E:/nightly/rwsdk.sky/rwsdk/lib/sky2/librwcore.a(p2heap.obj)
 .mdebug        0x000000000024ed9c      0x590 E:/nightly/rwsdk.sky/rwsdk/lib/sky2/librwcore.a(p2renderstate.obj)
 .mdebug        0x000000000024f32c      0x2a8 E:/nightly/rwsdk.sky/rwsdk/lib/sky2/librwcore.a(p2resort.obj)
 .mdebug        0x000000000024f5d4      0x650 E:/nightly/rwsdk.sky/rwsdk/lib/sky2/librwcore.a(p2stdcls.obj)
 .mdebug        0x000000000024fc24      0x458 E:/nightly/rwsdk.sky/rwsdk/lib/sky2/librwcore.a(im3dpipe.obj)
 .mdebug        0x000000000025007c     0x1c4c E:/nightly/rwsdk.sky/rwsdk/lib/sky2/librwcore.a(badma.obj)
 .mdebug        0x0000000000251cc8     0x3d98 E:/nightly/rwsdk.sky/rwsdk/lib/sky2/librwcore.a(basky.obj)
 .mdebug        0x0000000000255a60     0x1128 E:/nightly/rwsdk.sky/rwsdk/lib/sky2/librwcore.a(baskytran.obj)
 .mdebug        0x0000000000256b88      0x6f4 E:/nightly/rwsdk.sky/rwsdk/lib/sky2/librwcore.a(dmaalloc.obj)
 .mdebug        0x000000000025727c      0xde0 E:/nightly/rwsdk.sky/rwsdk/lib/sky2/librwcore.a(skyblit.obj)
 .mdebug        0x000000000025805c      0x874 E:/nightly/rwsdk.sky/rwsdk/lib/sky2/librwcore.a(skyconv.obj)
 .mdebug        0x00000000002588d0     0x19a4 E:/nightly/rwsdk.sky/rwsdk/lib/sky2/librwcore.a(skyinst.obj)
 .mdebug        0x000000000025a274      0x248 E:/nightly/rwsdk.sky/rwsdk/lib/sky2/librwcore.a(skywrins.obj)
 .mdebug        0x000000000025a4bc     0x19b8 E:/nightly/rwsdk.sky/rwsdk/lib/sky2/librwcore.a(texcache.obj)
 .mdebug        0x000000000025be74      0xdc8 E:/nightly/rwsdk.sky/rwsdk/lib/sky2/librwcore.a(imrascnv.obj)
 .mdebug        0x000000000025cc3c      0x8c4 E:/nightly/rwsdk.sky/rwsdk/lib/sky2/librwcore.a(palquant.obj)
 .mdebug        0x000000000025d500      0x2b0 E:/nightly/rwsdk.sky/rwsdk/lib/sky2/librwcore.a(osintf.obj)
 .mdebug        0x000000000025d7b0      0x2bc E:/nightly/rwsdk.sky/rwsdk/lib/sky2/librwcore.a(bacolor.obj)
 .mdebug        0x000000000025da6c      0x25c E:/nightly/rwsdk.sky/rwsdk/lib/sky2/librwcore.a(baevent.obj)
 .mdebug        0x000000000025dcc8      0x320 E:/usr/local/sce/ee/lib/libgraph.a(graph001.o)
 .mdebug        0x000000000025dfe8      0x208 E:/usr/local/sce/ee/lib/libgraph.a(graph002.o)
 .mdebug        0x000000000025e1f0      0x210 E:/usr/local/sce/ee/lib/libgraph.a(graph011.o)
 .mdebug        0x000000000025e400      0x1e4 E:/usr/local/sce/ee/lib/libgraph.a(graph012.o)
 .mdebug        0x000000000025e5e4      0x1dc E:/usr/local/sce/ee/lib/libgraph.a(graph016.o)
 .mdebug        0x000000000025e7c0      0x250 E:/usr/local/sce/ee/lib/libgraph.a(graph018.o)
 .mdebug        0x000000000025ea10      0x1d4 E:/usr/local/sce/ee/lib/libgraph.a(graph021.o)
 .mdebug        0x000000000025ebe4      0x1d4 E:/usr/local/sce/ee/lib/libgraph.a(graph026.o)
 .mdebug        0x000000000025edb8      0x29c E:/usr/local/sce/ee/lib/libgraph.a(graph027.o)
 .mdebug        0x000000000025f054      0x214 E:/usr/local/sce/ee/lib/libgraph.a(graph028.o)
 .mdebug        0x000000000025f268      0x20c E:/usr/local/sce/ee/lib/libgraph.a(graph003.o)
 .mdebug        0x000000000025f474      0x1ec E:/usr/local/sce/ee/lib/libgraph.a(graph004.o)
 .mdebug        0x000000000025f660      0x1ec E:/usr/local/sce/ee/lib/libgraph.a(graph005.o)
 .mdebug        0x000000000025f84c      0x1f4 E:/usr/local/sce/ee/lib/libgraph.a(graph006.o)
 .mdebug        0x000000000025fa40      0x1d4 E:/usr/local/sce/ee/lib/libgraph.a(graph007.o)
 .mdebug        0x000000000025fc14      0x1e4 E:/usr/local/sce/ee/lib/libgraph.a(graph008.o)
 .mdebug        0x000000000025fdf8      0x1f4 E:/usr/local/sce/ee/lib/libgraph.a(graph022.o)
 .mdebug        0x000000000025ffec      0xadc E:/usr/local/sce/ee/lib/libdma.a(libdma.o)
 .mdebug        0x0000000000260ac8     0x139c E:/usr/local/sce/ee/lib/libpad.a(libpad.o)
 .mdebug        0x0000000000261e64     0x118c E:/usr/local/sce/ee/gcc/lib/gcc-lib/ee\2.95.2\../../../../ee\lib\libm.a(sf_ceil.o)
 .mdebug        0x0000000000262ff0     0x1174 E:/usr/local/sce/ee/gcc/lib/gcc-lib/ee\2.95.2\../../../../ee\lib\libm.a(sf_cos.o)
 .mdebug        0x0000000000264164     0x11a4 E:/usr/local/sce/ee/gcc/lib/gcc-lib/ee\2.95.2\../../../../ee\lib\libm.a(sf_floor.o)
 .mdebug        0x0000000000265308     0x113c E:/usr/local/sce/ee/gcc/lib/gcc-lib/ee\2.95.2\../../../../ee\lib\libm.a(sf_sin.o)
 .mdebug        0x0000000000266444     0x1880 E:/usr/local/sce/ee/gcc/lib/gcc-lib/ee\2.95.2\../../../../ee\lib\libm.a(w_pow.o)
 .mdebug        0x0000000000267cc4     0x120c E:/usr/local/sce/ee/gcc/lib/gcc-lib/ee\2.95.2\../../../../ee\lib\libm.a(w_sqrt.o)
 .mdebug        0x0000000000268ed0     0x1244 E:/usr/local/sce/ee/gcc/lib/gcc-lib/ee\2.95.2\../../../../ee\lib\libm.a(wf_acos.o)
 .mdebug        0x000000000026a114     0x1254 E:/usr/local/sce/ee/gcc/lib/gcc-lib/ee\2.95.2\../../../../ee\lib\libm.a(wf_atan2.o)
 .mdebug        0x000000000026b368     0x194c E:/usr/local/sce/ee/gcc/lib/gcc-lib/ee\2.95.2\../../../../ee\lib\libm.a(wf_pow.o)
 .mdebug        0x000000000026ccb4     0x28ac E:/usr/local/sce/ee/gcc/lib/gcc-lib/ee\2.95.2\../../../../ee\lib\libm.a(e_pow.o)
 .mdebug        0x000000000026f560     0x1810 E:/usr/local/sce/ee/gcc/lib/gcc-lib/ee\2.95.2\../../../../ee\lib\libm.a(e_sqrt.o)
 .mdebug        0x0000000000270d70     0x1b90 E:/usr/local/sce/ee/gcc/lib/gcc-lib/ee\2.95.2\../../../../ee\lib\libm.a(ef_acos.o)
 .mdebug        0x0000000000272900     0x153c E:/usr/local/sce/ee/gcc/lib/gcc-lib/ee\2.95.2\../../../../ee\lib\libm.a(ef_atan2.o)
 .mdebug        0x0000000000273e3c     0x2ac0 E:/usr/local/sce/ee/gcc/lib/gcc-lib/ee\2.95.2\../../../../ee\lib\libm.a(ef_pow.o)
 .mdebug        0x00000000002768fc     0x1bf8 E:/usr/local/sce/ee/gcc/lib/gcc-lib/ee\2.95.2\../../../../ee\lib\libm.a(ef_rem_pio2.o)
 .mdebug        0x00000000002784f4     0x1394 E:/usr/local/sce/ee/gcc/lib/gcc-lib/ee\2.95.2\../../../../ee\lib\libm.a(ef_sqrt.o)
 .mdebug        0x0000000000279888     0x1400 E:/usr/local/sce/ee/gcc/lib/gcc-lib/ee\2.95.2\../../../../ee\lib\libm.a(kf_cos.o)
 .mdebug        0x000000000027ac88     0x1e44 E:/usr/local/sce/ee/gcc/lib/gcc-lib/ee\2.95.2\../../../../ee\lib\libm.a(kf_rem_pio2.o)
 .mdebug        0x000000000027cacc     0x12ac E:/usr/local/sce/ee/gcc/lib/gcc-lib/ee\2.95.2\../../../../ee\lib\libm.a(kf_sin.o)
 .mdebug        0x000000000027dd78     0x1070 E:/usr/local/sce/ee/gcc/lib/gcc-lib/ee\2.95.2\../../../../ee\lib\libm.a(s_fabs.o)
 .mdebug        0x000000000027ede8     0x102c E:/usr/local/sce/ee/gcc/lib/gcc-lib/ee\2.95.2\../../../../ee\lib\libm.a(s_finite.o)
 .mdebug        0x000000000027fe14      0xefc E:/usr/local/sce/ee/gcc/lib/gcc-lib/ee\2.95.2\../../../../ee\lib\libm.a(s_infconst.o)
 .mdebug        0x0000000000280d10     0x10d8 E:/usr/local/sce/ee/gcc/lib/gcc-lib/ee\2.95.2\../../../../ee\lib\libm.a(s_isnan.o)
 .mdebug        0x0000000000281de8      0xf08 E:/usr/local/sce/ee/gcc/lib/gcc-lib/ee\2.95.2\../../../../ee\lib\libm.a(s_lib_ver.o)
 .mdebug        0x0000000000282cf0     0x1000 E:/usr/local/sce/ee/gcc/lib/gcc-lib/ee\2.95.2\../../../../ee\lib\libm.a(s_matherr.o)
 .mdebug        0x0000000000283cf0     0x13ec E:/usr/local/sce/ee/gcc/lib/gcc-lib/ee\2.95.2\../../../../ee\lib\libm.a(s_rint.o)
 .mdebug        0x00000000002850dc     0x1390 E:/usr/local/sce/ee/gcc/lib/gcc-lib/ee\2.95.2\../../../../ee\lib\libm.a(s_scalbn.o)
 .mdebug        0x000000000028646c     0x1554 E:/usr/local/sce/ee/gcc/lib/gcc-lib/ee\2.95.2\../../../../ee\lib\libm.a(sf_atan.o)
 .mdebug        0x00000000002879c0     0x1038 E:/usr/local/sce/ee/gcc/lib/gcc-lib/ee\2.95.2\../../../../ee\lib\libm.a(sf_fabs.o)
 .mdebug        0x00000000002889f8     0x101c E:/usr/local/sce/ee/gcc/lib/gcc-lib/ee\2.95.2\../../../../ee\lib\libm.a(sf_finite.o)
 .mdebug        0x0000000000289a14     0x1058 E:/usr/local/sce/ee/gcc/lib/gcc-lib/ee\2.95.2\../../../../ee\lib\libm.a(sf_isnan.o)
 .mdebug        0x000000000028aa6c     0x1344 E:/usr/local/sce/ee/gcc/lib/gcc-lib/ee\2.95.2\../../../../ee\lib\libm.a(sf_scalbn.o)
 .mdebug        0x000000000028bdb0     0x10dc E:/usr/local/sce/ee/gcc/lib/gcc-lib/ee\2.95.2\../../../../ee\lib\libm.a(s_copysign.o)
 .mdebug        0x000000000028ce8c     0x10a4 E:/usr/local/sce/ee/gcc/lib/gcc-lib/ee\2.95.2\../../../../ee\lib\libm.a(sf_copysign.o)
 .mdebug        0x000000000028df30     0x12ac E:/usr/local/sce/ee/gcc/lib/gcc-lib/ee\2.95.2\libgcc.a(__main.o)
 .mdebug        0x000000000028f1dc     0x106c E:/usr/local/sce/ee/gcc/lib/gcc-lib/ee\2.95.2\libgcc.a(_ctors.o)
 .mdebug        0x0000000000290248     0x10cc E:/usr/local/sce/ee/gcc/lib/gcc-lib/ee\2.95.2\libgcc.a(_fixdfdi.o)
 .mdebug        0x0000000000291314     0x1114 E:/usr/local/sce/ee/gcc/lib/gcc-lib/ee\2.95.2\libgcc.a(_fixunsdfdi.o)
 .mdebug        0x0000000000292428     0x10cc E:/usr/local/sce/ee/gcc/lib/gcc-lib/ee\2.95.2\libgcc.a(_floatdidf.o)
 .mdebug        0x00000000002934f4     0x10e4 E:/usr/local/sce/ee/gcc/lib/gcc-lib/ee\2.95.2\libgcc.a(_floatdisf.o)
 .mdebug        0x00000000002945d8     0x1094 E:/usr/local/sce/ee/gcc/lib/gcc-lib/ee\2.95.2\libgcc.a(_muldi3.o)
 .mdebug        0x000000000029566c     0x10e8 E:/usr/local/sce/ee/gcc/lib/gcc-lib/ee\2.95.2\libgcc.a(_udivdi3.o)
 .mdebug        0x0000000000296754     0x10e8 E:/usr/local/sce/ee/gcc/lib/gcc-lib/ee\2.95.2\libgcc.a(_umoddi3.o)
 .mdebug        0x000000000029783c     0x1424 E:/usr/local/sce/ee/gcc/lib/gcc-lib/ee\2.95.2\libgcc.a(dp-bit.o)
 .mdebug        0x0000000000298c60     0x13fc E:/usr/local/sce/ee/gcc/lib/gcc-lib/ee\2.95.2\libgcc.a(fp-bit.o)
 .mdebug        0x000000000029a05c      0xeec E:/usr/local/sce/ee/gcc/lib/gcc-lib/ee\2.95.2\../../../../ee\lib\libc.a(calloc.o)
 .mdebug        0x000000000029af48     0x13ec E:/usr/local/sce/ee/gcc/lib/gcc-lib/ee\2.95.2\../../../../ee\lib\libc.a(callocr.o)
 .mdebug        0x000000000029c334      0x624 E:/usr/local/sce/ee/gcc/lib/gcc-lib/ee\2.95.2\../../../../ee\lib\libc.a(ctype_.o)
 .mdebug        0x000000000029c958      0xe18 E:/usr/local/sce/ee/gcc/lib/gcc-lib/ee\2.95.2\../../../../ee\lib\libc.a(errno.o)
 .mdebug        0x000000000029d770     0x14d4 E:/usr/local/sce/ee/gcc/lib/gcc-lib/ee\2.95.2\../../../../ee\lib\libc.a(fclose.o)
 .mdebug        0x000000000029ec44      0xe28 E:/usr/local/sce/ee/gcc/lib/gcc-lib/ee\2.95.2\../../../../ee\lib\libc.a(feof.o)
 .mdebug        0x000000000029fa6c     0x1500 E:/usr/local/sce/ee/gcc/lib/gcc-lib/ee\2.95.2\../../../../ee\lib\libc.a(fflush.o)
 .mdebug        0x00000000002a0f6c     0x1198 E:/usr/local/sce/ee/gcc/lib/gcc-lib/ee\2.95.2\../../../../ee\lib\libc.a(fgets.o)
 .mdebug        0x00000000002a2104     0x1e8c E:/usr/local/sce/ee/gcc/lib/gcc-lib/ee\2.95.2\../../../../ee\lib\libc.a(findfp.o)
 .mdebug        0x00000000002a3f90     0x1758 E:/usr/local/sce/ee/gcc/lib/gcc-lib/ee\2.95.2\../../../../ee\lib\libc.a(fopen.o)
 .mdebug        0x00000000002a56e8     0x100c E:/usr/local/sce/ee/gcc/lib/gcc-lib/ee\2.95.2\../../../../ee\lib\libc.a(fputs.o)
 .mdebug        0x00000000002a66f4     0x15a8 E:/usr/local/sce/ee/gcc/lib/gcc-lib/ee\2.95.2\../../../../ee\lib\libc.a(fread.o)
 .mdebug        0x00000000002a7c9c     0x1bcc E:/usr/local/sce/ee/gcc/lib/gcc-lib/ee\2.95.2\../../../../ee\lib\libc.a(freer.o)
 .mdebug        0x00000000002a9868     0x1f48 E:/usr/local/sce/ee/gcc/lib/gcc-lib/ee\2.95.2\../../../../ee\lib\libc.a(fseek.o)
 .mdebug        0x00000000002ab7b0     0x1194 E:/usr/local/sce/ee/gcc/lib/gcc-lib/ee\2.95.2\../../../../ee\lib\libc.a(fstatr.o)
 .mdebug        0x00000000002ac944     0x14b8 E:/usr/local/sce/ee/gcc/lib/gcc-lib/ee\2.95.2\../../../../ee\lib\libc.a(ftell.o)
 .mdebug        0x00000000002addfc     0x1b84 E:/usr/local/sce/ee/gcc/lib/gcc-lib/ee\2.95.2\../../../../ee\lib\libc.a(fvwrite.o)
 .mdebug        0x00000000002af980     0x1494 E:/usr/local/sce/ee/gcc/lib/gcc-lib/ee\2.95.2\../../../../ee\lib\libc.a(fwalk.o)
 .mdebug        0x00000000002b0e14     0x1534 E:/usr/local/sce/ee/gcc/lib/gcc-lib/ee\2.95.2\../../../../ee\lib\libc.a(fwrite.o)
 .mdebug        0x00000000002b2348      0xdbc E:/usr/local/sce/ee/gcc/lib/gcc-lib/ee\2.95.2\../../../../ee\lib\libc.a(impure.o)
 .mdebug        0x00000000002b3104     0x185c E:/usr/local/sce/ee/gcc/lib/gcc-lib/ee\2.95.2\../../../../ee\lib\libc.a(makebuf.o)
 .mdebug        0x00000000002b4960     0x10bc E:/usr/local/sce/ee/gcc/lib/gcc-lib/ee\2.95.2\../../../../ee\lib\libc.a(malloc.o)
 .mdebug        0x00000000002b5a1c     0x28c4 E:/usr/local/sce/ee/gcc/lib/gcc-lib/ee\2.95.2\../../../../ee\lib\libc.a(mallocr.o)
 .mdebug        0x00000000002b82e0      0x2dc E:/usr/local/sce/ee/gcc/lib/gcc-lib/ee\2.95.2\../../../../ee\lib\libc.a(memchr.o)
 .mdebug        0x00000000002b85bc      0x2a8 E:/usr/local/sce/ee/gcc/lib/gcc-lib/ee\2.95.2\../../../../ee\lib\libc.a(memcmp.o)
 .mdebug        0x00000000002b8864      0x2d4 E:/usr/local/sce/ee/gcc/lib/gcc-lib/ee\2.95.2\../../../../ee\lib\libc.a(memcpy.o)
 .mdebug        0x00000000002b8b38      0x338 E:/usr/local/sce/ee/gcc/lib/gcc-lib/ee\2.95.2\../../../../ee\lib\libc.a(memmove.o)
 .mdebug        0x00000000002b8e70      0x2d8 E:/usr/local/sce/ee/gcc/lib/gcc-lib/ee\2.95.2\../../../../ee\lib\libc.a(memset.o)
 .mdebug        0x00000000002b9148      0xf98 E:/usr/local/sce/ee/gcc/lib/gcc-lib/ee\2.95.2\../../../../ee\lib\libc.a(mlock.o)
 .mdebug        0x00000000002ba0e0     0x11a8 E:/usr/local/sce/ee/gcc/lib/gcc-lib/ee\2.95.2\../../../../ee\lib\libc.a(openr.o)
 .mdebug        0x00000000002bb288     0x12a0 E:/usr/local/sce/ee/gcc/lib/gcc-lib/ee\2.95.2\../../../../ee\lib\libc.a(printf.o)
 .mdebug        0x00000000002bc528     0x2644 E:/usr/local/sce/ee/gcc/lib/gcc-lib/ee\2.95.2\../../../../ee\lib\libc.a(qsort.o)
 .mdebug        0x00000000002beb6c      0xfe8 E:/usr/local/sce/ee/gcc/lib/gcc-lib/ee\2.95.2\../../../../ee\lib\libc.a(realloc.o)
 .mdebug        0x00000000002bfb54     0x1da0 E:/usr/local/sce/ee/gcc/lib/gcc-lib/ee\2.95.2\../../../../ee\lib\libc.a(reallocr.o)
 .mdebug        0x00000000002c18f4     0x1774 E:/usr/local/sce/ee/gcc/lib/gcc-lib/ee\2.95.2\../../../../ee\lib\libc.a(refill.o)
 .mdebug        0x00000000002c3068     0x1174 E:/usr/local/sce/ee/gcc/lib/gcc-lib/ee\2.95.2\../../../../ee\lib\libc.a(sbrkr.o)
 .mdebug        0x00000000002c41dc      0x258 E:/usr/local/sce/ee/gcc/lib/gcc-lib/ee\2.95.2\../../../../ee\lib\libc.a(setjmp.o)
 .mdebug        0x00000000002c4434     0x1700 E:/usr/local/sce/ee/gcc/lib/gcc-lib/ee\2.95.2\../../../../ee\lib\libc.a(sprintf.o)
 .mdebug        0x00000000002c5b34     0x15e4 E:/usr/local/sce/ee/gcc/lib/gcc-lib/ee\2.95.2\../../../../ee\lib\libc.a(sscanf.o)
 .mdebug        0x00000000002c7118     0x1aa0 E:/usr/local/sce/ee/gcc/lib/gcc-lib/ee\2.95.2\../../../../ee\lib\libc.a(stdio.o)
 .mdebug        0x00000000002c8bb8      0x300 E:/usr/local/sce/ee/gcc/lib/gcc-lib/ee\2.95.2\../../../../ee\lib\libc.a(strcat.o)
 .mdebug        0x00000000002c8eb8      0x328 E:/usr/local/sce/ee/gcc/lib/gcc-lib/ee\2.95.2\../../../../ee\lib\libc.a(strchr.o)
 .mdebug        0x00000000002c91e0      0x368 E:/usr/local/sce/ee/gcc/lib/gcc-lib/ee\2.95.2\../../../../ee\lib\libc.a(strcmp.o)
 .mdebug        0x00000000002c9548      0x2bc E:/usr/local/sce/ee/gcc/lib/gcc-lib/ee\2.95.2\../../../../ee\lib\libc.a(strcpy.o)
 .mdebug        0x00000000002c9804      0xf10 E:/usr/local/sce/ee/gcc/lib/gcc-lib/ee\2.95.2\../../../../ee\lib\libc.a(strdup.o)
 .mdebug        0x00000000002ca714      0xfa4 E:/usr/local/sce/ee/gcc/lib/gcc-lib/ee\2.95.2\../../../../ee\lib\libc.a(strdup_r.o)
 .mdebug        0x00000000002cb6b8      0x2c0 E:/usr/local/sce/ee/gcc/lib/gcc-lib/ee\2.95.2\../../../../ee\lib\libc.a(strlen.o)
 .mdebug        0x00000000002cb978      0x3c0 E:/usr/local/sce/ee/gcc/lib/gcc-lib/ee\2.95.2\../../../../ee\lib\libc.a(strncat.o)
 .mdebug        0x00000000002cbd38      0x37c E:/usr/local/sce/ee/gcc/lib/gcc-lib/ee\2.95.2\../../../../ee\lib\libc.a(strncpy.o)
 .mdebug        0x00000000002cc0b4      0xef4 E:/usr/local/sce/ee/gcc/lib/gcc-lib/ee\2.95.2\../../../../ee\lib\libc.a(strrchr.o)
 .mdebug        0x00000000002ccfa8      0xf44 E:/usr/local/sce/ee/gcc/lib/gcc-lib/ee\2.95.2\../../../../ee\lib\libc.a(strstr.o)
 .mdebug        0x00000000002cdeec     0x2ef8 E:/usr/local/sce/ee/gcc/lib/gcc-lib/ee\2.95.2\../../../../ee\lib\libc.a(strtod.o)
 .mdebug        0x00000000002d0de4      0xe54 E:/usr/local/sce/ee/gcc/lib/gcc-lib/ee\2.95.2\../../../../ee\lib\libc.a(strtok.o)
 .mdebug        0x00000000002d1c38      0xfe4 E:/usr/local/sce/ee/gcc/lib/gcc-lib/ee\2.95.2\../../../../ee\lib\libc.a(strtok_r.o)
 .mdebug        0x00000000002d2c1c     0x4110 E:/usr/local/sce/ee/gcc/lib/gcc-lib/ee\2.95.2\../../../../ee\lib\libc.a(vfprintf.o)
 .mdebug        0x00000000002d6d2c     0x32e4 E:/usr/local/sce/ee/gcc/lib/gcc-lib/ee\2.95.2\../../../../ee\lib\libc.a(vfscanf.o)
 .mdebug        0x00000000002da010     0x11fc E:/usr/local/sce/ee/gcc/lib/gcc-lib/ee\2.95.2\../../../../ee\lib\libc.a(vsprintf.o)
 .mdebug        0x00000000002db20c     0x11b0 E:/usr/local/sce/ee/gcc/lib/gcc-lib/ee\2.95.2\../../../../ee\lib\libc.a(writer.o)
 .mdebug        0x00000000002dc3bc     0x1550 E:/usr/local/sce/ee/gcc/lib/gcc-lib/ee\2.95.2\../../../../ee\lib\libc.a(wsetup.o)
 .mdebug        0x00000000002dd90c      0xe6c E:/usr/local/sce/ee/gcc/lib/gcc-lib/ee\2.95.2\../../../../ee\lib\libc.a(atof.o)
 .mdebug        0x00000000002de778     0x1164 E:/usr/local/sce/ee/gcc/lib/gcc-lib/ee\2.95.2\../../../../ee\lib\libc.a(closer.o)
 .mdebug        0x00000000002df8dc     0x3d3c E:/usr/local/sce/ee/gcc/lib/gcc-lib/ee\2.95.2\../../../../ee\lib\libc.a(dtoa.o)
 .mdebug        0x00000000002e3618     0x14d4 E:/usr/local/sce/ee/gcc/lib/gcc-lib/ee\2.95.2\../../../../ee\lib\libc.a(flags.o)
 .mdebug        0x00000000002e4aec     0x14f8 E:/usr/local/sce/ee/gcc/lib/gcc-lib/ee\2.95.2\../../../../ee\lib\libc.a(locale.o)
 .mdebug        0x00000000002e5fe4     0x11b0 E:/usr/local/sce/ee/gcc/lib/gcc-lib/ee\2.95.2\../../../../ee\lib\libc.a(lseekr.o)
 .mdebug        0x00000000002e7194     0x1128 E:/usr/local/sce/ee/gcc/lib/gcc-lib/ee\2.95.2\../../../../ee\lib\libc.a(mbtowc_r.o)
 .mdebug        0x00000000002e82bc     0x4890 E:/usr/local/sce/ee/gcc/lib/gcc-lib/ee\2.95.2\../../../../ee\lib\libc.a(mprec.o)
 .mdebug        0x00000000002ecb4c     0x11a8 E:/usr/local/sce/ee/gcc/lib/gcc-lib/ee\2.95.2\../../../../ee\lib\libc.a(readr.o)
 .mdebug        0x00000000002edcf4     0x10d8 E:/usr/local/sce/ee/gcc/lib/gcc-lib/ee\2.95.2\../../../../ee\lib\libc.a(s_isinf.o)
 .mdebug        0x00000000002eedcc     0x1480 E:/usr/local/sce/ee/gcc/lib/gcc-lib/ee\2.95.2\../../../../ee\lib\libc.a(strtol.o)
 .mdebug        0x00000000002f024c     0x1460 E:/usr/local/sce/ee/gcc/lib/gcc-lib/ee\2.95.2\../../../../ee\lib\libc.a(strtoul.o)
 .mdebug        0x00000000002f16ac     0x19fc E:/usr/local/sce/ee/gcc/lib/gcc-lib/ee\2.95.2\../../../../ee\lib\libc.a(ungetc.o)
 .mdebug        0x00000000002f30a8     0x499c E:/usr/local/sce/ee/lib\libkernl.a(klib.o)
 .mdebug        0x00000000002f7a44      0x984 E:/usr/local/sce/ee/lib\libkernl.a(glue.o)
 .mdebug        0x00000000002f83c8      0x454 E:/usr/local/sce/ee/lib\libkernl.a(cache.o)
 .mdebug        0x00000000002f881c      0x924 E:/usr/local/sce/ee/lib\libkernl.a(intr.o)
 .mdebug        0x00000000002f9140      0x650 E:/usr/local/sce/ee/lib\libkernl.a(tty.o)
 .mdebug        0x00000000002f9790      0x690 E:/usr/local/sce/ee/lib\libkernl.a(kprintf.o)
 .mdebug        0x00000000002f9e20      0xfd8 E:/usr/local/sce/ee/lib\libkernl.a(sifrpc.o)
 .mdebug        0x00000000002fadf8     0x1790 E:/usr/local/sce/ee/lib\libkernl.a(filestub.o)
 .mdebug        0x00000000002fc588      0x58c E:/usr/local/sce/ee/lib\libkernl.a(iopheap.o)
 .mdebug        0x00000000002fcb14      0xcb4 E:/usr/local/sce/ee/lib\libkernl.a(eeloadfile.o)
 .mdebug        0x00000000002fd7c8      0x224 E:/usr/local/sce/ee/lib\libkernl.a(diei.o)
 .mdebug        0x00000000002fd9ec      0x2d0 E:/usr/local/sce/ee/lib\libkernl.a(initsys.o)
 .mdebug        0x00000000002fdcbc      0x630 E:/usr/local/sce/ee/lib\libkernl.a(thread.o)
 .mdebug        0x00000000002fe2ec      0x694 E:/usr/local/sce/ee/lib\libkernl.a(deci2.o)
 .mdebug        0x00000000002fe980      0xd54 E:/usr/local/sce/ee/lib\libkernl.a(sifcmd.o)
 .mdebug        0x00000000002ff6d4     0x10e8 E:/usr/local/sce/ee/gcc/lib/gcc-lib/ee\2.95.2\libgcc.a(_divdi3.o)
 .mdebug        0x00000000003007bc     0x10e8 E:/usr/local/sce/ee/gcc/lib/gcc-lib/ee\2.95.2\libgcc.a(_moddi3.o)

.DVP.ovlytab    0x00000000001edcc0      0x174
 .DVP.ovlytab   0x00000000001edcc0       0x48 E:/nightly/rwsdk.sky/rwsdk/lib/sky2/librwcore.a(GenericPRL.obj)
 .DVP.ovlytab   0x00000000001edd08       0x48 E:/nightly/rwsdk.sky/rwsdk/lib/sky2/librwcore.a(GenericPRS.obj)
 .DVP.ovlytab   0x00000000001edd50       0x60 E:/nightly/rwsdk.sky/rwsdk/lib/sky2/librwcore.a(CullFacerPRS.obj)
 .DVP.ovlytab   0x00000000001eddb0       0x24 E:/nightly/rwsdk.sky/rwsdk/lib/sky2/librwcore.a(SegmentsPRL.obj)
 .DVP.ovlytab   0x00000000001eddd4       0x24 E:/nightly/rwsdk.sky/rwsdk/lib/sky2/librwcore.a(SegmentsPRS.obj)
 .DVP.ovlytab   0x00000000001eddf8        0xc E:/nightly/rwsdk.sky/rwsdk/lib/sky2/librwcore.a(baim2dll.obj)
 .DVP.ovlytab   0x00000000001ede04        0xc E:/nightly/rwsdk.sky/rwsdk/lib/sky2/librwcore.a(baim2dtl.obj)
 .DVP.ovlytab   0x00000000001ede10        0xc E:/nightly/rwsdk.sky/rwsdk/lib/sky2/librwcore.a(banfim2dll.obj)
 .DVP.ovlytab   0x00000000001ede1c        0xc E:/nightly/rwsdk.sky/rwsdk/lib/sky2/librwcore.a(banfim2dtl.obj)
 .DVP.ovlytab   0x00000000001ede28        0xc E:/nightly/rwsdk.sky/rwsdk/lib/sky2/librwcore.a(nulltrans.obj)

.DVP.ovlystrtab
                0x00000000001edcc0      0x480
 .DVP.ovlystrtab
                0x00000000001edcc0       0xe3 E:/nightly/rwsdk.sky/rwsdk/lib/sky2/librwcore.a(GenericPRL.obj)
 .DVP.ovlystrtab
                0x00000000001edda3       0xe4 E:/nightly/rwsdk.sky/rwsdk/lib/sky2/librwcore.a(GenericPRS.obj)
 .DVP.ovlystrtab
                0x00000000001ede87      0x131 E:/nightly/rwsdk.sky/rwsdk/lib/sky2/librwcore.a(CullFacerPRS.obj)
 .DVP.ovlystrtab
                0x00000000001edfb8       0x70 E:/nightly/rwsdk.sky/rwsdk/lib/sky2/librwcore.a(SegmentsPRL.obj)
 .DVP.ovlystrtab
                0x00000000001ee028       0x70 E:/nightly/rwsdk.sky/rwsdk/lib/sky2/librwcore.a(SegmentsPRS.obj)
 .DVP.ovlystrtab
                0x00000000001ee098        0x1 E:/nightly/rwsdk.sky/rwsdk/lib/sky2/librwcore.a(baasm.obj)
 .DVP.ovlystrtab
                0x00000000001ee099       0x22 E:/nightly/rwsdk.sky/rwsdk/lib/sky2/librwcore.a(baim2dll.obj)
 .DVP.ovlystrtab
                0x00000000001ee0bb       0x22 E:/nightly/rwsdk.sky/rwsdk/lib/sky2/librwcore.a(baim2dtl.obj)
 .DVP.ovlystrtab
                0x00000000001ee0dd       0x21 E:/nightly/rwsdk.sky/rwsdk/lib/sky2/librwcore.a(banfim2dll.obj)
 .DVP.ovlystrtab
                0x00000000001ee0fe       0x21 E:/nightly/rwsdk.sky/rwsdk/lib/sky2/librwcore.a(banfim2dtl.obj)
 .DVP.ovlystrtab
                0x00000000001ee11f       0x21 E:/nightly/rwsdk.sky/rwsdk/lib/sky2/librwcore.a(nulltrans.obj)

.DVP.overlay..0x0.411933139.16.0
                0x0000000000000000      0x800
 .DVP.overlay..0x0.411933139.16.0
                0x0000000000000000      0x800 E:/nightly/rwsdk.sky/rwsdk/lib/sky2/librwcore.a(GenericPRL.obj)

.DVP.overlay..unknvma.3756202193.317.1
                0x0000000000000000      0x800
 .DVP.overlay..unknvma.3756202193.317.1
                0x0000000000000000      0x800 E:/nightly/rwsdk.sky/rwsdk/lib/sky2/librwcore.a(GenericPRL.obj)

.DVP.overlay..unknvma.3756202193.626.2
                0x0000000000000000      0x800
 .DVP.overlay..unknvma.3756202193.626.2
                0x0000000000000000      0x800 E:/nightly/rwsdk.sky/rwsdk/lib/sky2/librwcore.a(GenericPRL.obj)

.DVP.overlay..unknvma.1669966057.233.3
                0x0000000000000000      0x800
 .DVP.overlay..unknvma.1669966057.233.3
                0x0000000000000000      0x800 E:/nightly/rwsdk.sky/rwsdk/lib/sky2/librwcore.a(GenericPRL.obj)

.DVP.overlay..unknvma.2864883945.109.4
                0x0000000000000000      0x800
 .DVP.overlay..unknvma.2864883945.109.4
                0x0000000000000000      0x800 E:/nightly/rwsdk.sky/rwsdk/lib/sky2/librwcore.a(GenericPRL.obj)

.DVP.overlay..unknvma.335236857.22.5
                0x0000000000000000      0x148
 .DVP.overlay..unknvma.335236857.22.5
                0x0000000000000000      0x148 E:/nightly/rwsdk.sky/rwsdk/lib/sky2/librwcore.a(GenericPRL.obj)

.DVP.overlay..0x0.411933251.16.0
                0x0000000000000000      0x800
 .DVP.overlay..0x0.411933251.16.0
                0x0000000000000000      0x800 E:/nightly/rwsdk.sky/rwsdk/lib/sky2/librwcore.a(GenericPRS.obj)

.DVP.overlay..unknvma.3756202193.312.1
                0x0000000000000000      0x800
 .DVP.overlay..unknvma.3756202193.312.1
                0x0000000000000000      0x800 E:/nightly/rwsdk.sky/rwsdk/lib/sky2/librwcore.a(GenericPRS.obj)

.DVP.overlay..unknvma.3756202193.611.2
                0x0000000000000000      0x800
 .DVP.overlay..unknvma.3756202193.611.2
                0x0000000000000000      0x800 E:/nightly/rwsdk.sky/rwsdk/lib/sky2/librwcore.a(GenericPRS.obj)

.DVP.overlay..unknvma.1669965945.131.3
                0x0000000000000000      0x800
 .DVP.overlay..unknvma.1669965945.131.3
                0x0000000000000000      0x800 E:/nightly/rwsdk.sky/rwsdk/lib/sky2/librwcore.a(GenericPRS.obj)

.DVP.overlay..unknvma.1670043769.71.4
                0x0000000000000000      0x800
 .DVP.overlay..unknvma.1670043769.71.4
                0x0000000000000000      0x800 E:/nightly/rwsdk.sky/rwsdk/lib/sky2/librwcore.a(GenericPRS.obj)

.DVP.overlay..unknvma.2864883833.309.5
                0x0000000000000000      0x468
 .DVP.overlay..unknvma.2864883833.309.5
                0x0000000000000000      0x468 E:/nightly/rwsdk.sky/rwsdk/lib/sky2/librwcore.a(GenericPRS.obj)

.DVP.overlay..0x0.1647787971.16.0
                0x0000000000000000      0x800
 .DVP.overlay..0x0.1647787971.16.0
                0x0000000000000000      0x800 E:/nightly/rwsdk.sky/rwsdk/lib/sky2/librwcore.a(CullFacerPRS.obj)

.DVP.overlay..unknvma.3756202193.308.1
                0x0000000000000000      0x800
 .DVP.overlay..unknvma.3756202193.308.1
                0x0000000000000000      0x800 E:/nightly/rwsdk.sky/rwsdk/lib/sky2/librwcore.a(CullFacerPRS.obj)

.DVP.overlay..unknvma.3756202193.607.2
                0x0000000000000000      0x800
 .DVP.overlay..unknvma.3756202193.607.2
                0x0000000000000000      0x800 E:/nightly/rwsdk.sky/rwsdk/lib/sky2/librwcore.a(CullFacerPRS.obj)

.DVP.overlay..unknvma.1669450073.42.3
                0x0000000000000000      0x800
 .DVP.overlay..unknvma.1669450073.42.3
                0x0000000000000000      0x800 E:/nightly/rwsdk.sky/rwsdk/lib/sky2/librwcore.a(CullFacerPRS.obj)

.DVP.overlay..unknvma.1669441657.79.4
                0x0000000000000000      0x800
 .DVP.overlay..unknvma.1669441657.79.4
                0x0000000000000000      0x800 E:/nightly/rwsdk.sky/rwsdk/lib/sky2/librwcore.a(CullFacerPRS.obj)

.DVP.overlay..unknvma.1647787971.259.5
                0x0000000000000000      0x800
 .DVP.overlay..unknvma.1647787971.259.5
                0x0000000000000000      0x800 E:/nightly/rwsdk.sky/rwsdk/lib/sky2/librwcore.a(CullFacerPRS.obj)

.DVP.overlay..unknvma.2864883833.248.6
                0x0000000000000000      0x800
 .DVP.overlay..unknvma.2864883833.248.6
                0x0000000000000000      0x800 E:/nightly/rwsdk.sky/rwsdk/lib/sky2/librwcore.a(CullFacerPRS.obj)

.DVP.overlay..unknvma.1433737561.38.7
                0x0000000000000000      0x1e0
 .DVP.overlay..unknvma.1433737561.38.7
                0x0000000000000000      0x1e0 E:/nightly/rwsdk.sky/rwsdk/lib/sky2/librwcore.a(CullFacerPRS.obj)

.DVP.overlay..0x0.824048851.16.0
                0x0000000000000000      0x800
 .DVP.overlay..0x0.824048851.16.0
                0x0000000000000000      0x800 E:/nightly/rwsdk.sky/rwsdk/lib/sky2/librwcore.a(SegmentsPRL.obj)

.DVP.overlay..unknvma.3756202193.328.1
                0x0000000000000000      0x800
 .DVP.overlay..unknvma.3756202193.328.1
                0x0000000000000000      0x800 E:/nightly/rwsdk.sky/rwsdk/lib/sky2/librwcore.a(SegmentsPRL.obj)

.DVP.overlay..unknvma.3756202193.637.2
                0x0000000000000000      0x528
 .DVP.overlay..unknvma.3756202193.637.2
                0x0000000000000000      0x528 E:/nightly/rwsdk.sky/rwsdk/lib/sky2/librwcore.a(SegmentsPRL.obj)

.DVP.overlay..0x0.824048963.16.0
                0x0000000000000000      0x800
 .DVP.overlay..0x0.824048963.16.0
                0x0000000000000000      0x800 E:/nightly/rwsdk.sky/rwsdk/lib/sky2/librwcore.a(SegmentsPRS.obj)

.DVP.overlay..unknvma.3756202193.322.1
                0x0000000000000000      0x800
 .DVP.overlay..unknvma.3756202193.322.1
                0x0000000000000000      0x800 E:/nightly/rwsdk.sky/rwsdk/lib/sky2/librwcore.a(SegmentsPRS.obj)

.DVP.overlay..unknvma.3756202193.631.2
                0x0000000000000000      0x7d8
 .DVP.overlay..unknvma.3756202193.631.2
                0x0000000000000000      0x7d8 E:/nightly/rwsdk.sky/rwsdk/lib/sky2/librwcore.a(SegmentsPRS.obj)

.DVP.overlay..0x0.2250509715.6.0
                0x0000000000000000      0x1f0
 .DVP.overlay..0x0.2250509715.6.0
                0x0000000000000000      0x1f0 E:/nightly/rwsdk.sky/rwsdk/lib/sky2/librwcore.a(baim2dll.obj)

.DVP.overlay..0x0.2250509971.6.0
                0x0000000000000000      0x260
 .DVP.overlay..0x0.2250509971.6.0
                0x0000000000000000      0x260 E:/nightly/rwsdk.sky/rwsdk/lib/sky2/librwcore.a(baim2dtl.obj)

.DVP.overlay..0x0.412131731.6.0
                0x0000000000000000      0x148
 .DVP.overlay..0x0.412131731.6.0
                0x0000000000000000      0x148 E:/nightly/rwsdk.sky/rwsdk/lib/sky2/librwcore.a(banfim2dll.obj)

.DVP.overlay..0x0.412131987.6.0
                0x0000000000000000      0x178
 .DVP.overlay..0x0.412131987.6.0
                0x0000000000000000      0x178 E:/nightly/rwsdk.sky/rwsdk/lib/sky2/librwcore.a(banfim2dtl.obj)

.DVP.overlay..0x0.206163587.7.0
                0x0000000000000000       0x20
 .DVP.overlay..0x0.206163587.7.0
                0x0000000000000000       0x20 E:/nightly/rwsdk.sky/rwsdk/lib/sky2/librwcore.a(nulltrans.obj)
